(dp1
S'output'
p2
S"<type 'exceptions.IOError'> [Errno 2] No such file or directory: 'C:\\\\Users\\\\robta\\\\OneDrive\\\\Documents\\\\GitHub\\\\Commodity\\\\applications\\\\Commodity\\\\databases\\\\..\\\\uploads\\\\products.product_image.aa73fd41ef4eeb76.54616c6c5f536b696e6e795f4461696e657365526163696e6744314a61636b65745f4461696e657365416c69656e4c65617468657250616e74735f30312e6a7067.jpg'"
p3
sS'layer'
p4
S'C:\\Users\\robta\\OneDrive\\Documents\\GitHub\\Commodity\\applications\\Commodity\\controllers/default.py'
p5
sS'code'
p6
S'# -*- coding: utf-8 -*-\n# this file is released under public domain and you can use without limitations\n\n# -------------------------------------------------------------------------\n# This is a sample controller\n# - index is the default action of any application\n# - user is required for authentication and authorization\n# - download is for downloading files uploaded in the db (does streaming)\n# -------------------------------------------------------------------------\n\n\ndef index():\n    """\n    example action using the internationalization operator T and flash\n    rendered by views/default/index.html or views/generic.html\n\n    if you need a simple wiki simply replace the two lines below with:\n    return auth.wiki()\n    """\n    product = db.products\n    productName = product.product_name\n\n    product1Name = ""\n    product1URL = ""\n    product1Image = ""\n    product1Tag1 = ""\n    product1Tag2 = ""\n    product1Tag3 = ""\n\n    product2Name = ""\n    product2URL = ""\n    product2Image = ""\n    product2Tag1 = ""\n    product2Tag2 = ""\n    product2Tag3 = ""\n\n    product3Name = ""\n    product3URL = ""\n    product3Image = ""\n    product3Tag1 = ""\n    product3Tag2 = ""\n    product3Tag3 = ""\n\n    productIDURL = [0] * 4\n    reviewerName = [0] * 4\n    reviewerID = [0] * 4\n    reviewName = [0] * 4\n    reviewContent = [0] * 4\n    reviewRating = [0] * 4\n    reviewTimeStamp = [0] * 4\n    reviewerPicture = [0] * 4\n    reviewID = [0] * 4\n    o = 0\n\n    i = 0\n    for row in db().select(db.products.ALL, limitby=(0,3), orderby=~db.products.time_stamp):\n        if i == 0:\n            product1Name = row.product_name\n            product1Image = row.product_image\n            product1URL = URL(\'viewProduct\', vars=dict(productID=row.id))\n            product1Tag1 = row.tag_1\n            product1Tag2 = row.tag_2\n            product1Tag3 = row.tag_3\n            i = i + 1\n        elif i == 1:\n            product2Name = row.product_name\n            product2Image = row.product_image\n            product2URL = URL(\'viewProduct\', vars=dict(productID=row.id))\n            product2Tag1 = row.tag_1\n            product2Tag2 = row.tag_2\n            product2Tag3 = row.tag_3\n            i = i + 1\n        elif i == 2:\n            product3Name = row.product_name\n            product3Image = row.product_image\n            product3URL = URL(\'viewProduct\', vars=dict(productID=row.id))\n            product3Tag1 = row.tag_1\n            product3Tag2 = row.tag_2\n            product3Tag3 = row.tag_3\n            i = i + 1\n\n    loggedIn = 0\n\n    if not auth.is_logged_in():\n        loggedIn = 0\n    else:\n        loggedIn = 1\n        db.reviews.reviewer_name.default = auth.user.first_name\n        db.reviews.reviewer_id.default = auth.user.id\n\n    for row in db().select(db.reviews.ALL, limitby=(0,4), orderby=~db.reviews.review_rating):\n        productIDURL[o] = URL(\'viewProduct\', vars=dict(productID=row.products_id))\n        reviewerName[o] = row.reviewer_name\n        reviewName[o] = row.review_name\n        reviewContent[o] = row.review_content\n        reviewRating[o] = row.review_rating\n        reviewTimeStamp[o] = row.time_stamp\n        reviewID[o] = row.id\n        reviewerID[o] = row.reviewer_id\n        for row in db(db.auth_user.id == row.reviewer_id).select():\n            reviewerPicture[o] = row.profile_image\n        o = o + 1\n    return locals()\n\ndef newProduct():\n    form = SQLFORM(db.products).process()\n    return locals()\n\ndef addRetailer():\n    form = SQLFORM(db.retailers).process()\n    return locals()\n\ndef viewAllProducts():\n    rows = db(db.products).select()\n    return locals()\n\ndef viewProduct():\n    product = db.products\n    productID = product.id\n    queryID = request.vars.productID\n    query = productID == queryID\n    search = db(query)\n    rows = search.select()\n\n    name = ""\n    image = ""\n    description = ""\n    price = ""\n    tag1 = ""\n    tag2 = ""\n    tag3 = ""\n    timestamp = ""\n    i = 0\n\n    for row in rows:\n        name = row.product_name\n        image = row.product_image\n        description = row.product_description\n        price = row.product_price\n        tag1 = row.tag_1\n        tag2 = row.tag_2\n        tag3 = row.tag_3\n        timestamp = row.time_stamp\n    for row in db().select(db.review_rate_link.review_id,db.review_rate_link.user_id):\n        i = i + 1\n\n    if i == 0:\n        resultsArray = [0] * 1\n    else:\n        resultsArray = [0] * i\n\n    i = 0\n\n    for row in db().select(db.review_rate_link.review_id,db.review_rate_link.user_id):\n        i = i + 1\n\n    reviews = db.reviews\n    rProductID = reviews.products_id\n    query = rProductID == request.vars.productID\n    search = db(query)\n\n    newRows = search.select()\n\n    loggedIn = 0\n\n    if not auth.is_logged_in():\n        loggedIn = 0\n    else:\n        loggedIn = 1\n        db.reviews.reviewer_name.default = auth.user.first_name\n        db.reviews.reviewer_id.default = auth.user.id\n\n    db.reviews.products_id.default = request.vars.productID\n    db.reviews.review_rating.default = 0\n    form = SQLFORM(db.reviews).process()\n\n    return locals()\n\ndef upvote():\n    reviews = db.reviews\n    reviewID = reviews.id\n    query = reviewID == request.args[0]\n    search = db(query)\n    rows = search.select()\n\n    for row in rows:\n        reviewRating = row.review_rating\n        reviewRating = reviewRating + 1\n        row.update_record(review_rating=reviewRating)\n\n    reviewID = request.args[0]\n    userID = auth.user.id\n    db.review_rate_link.insert(user_id=userID,review_id=reviewID)\n\n    for row in db(db.auth_user.id == userID, db.auth_user.reviewer_score).select():\n        reviewerScore = row.reviewer_score\n        if reviewerScore == None:\n            reviewerScore = 0\n        reviewerScore = reviewerScore + 1\n        row.update_record(reviewer_score=reviewerScore)\n\n    return locals()\n\ndef downvote():\n    reviews = db.reviews\n    reviewID = reviews.id\n    query = reviewID == request.args[0]\n    search = db(query)\n    rows = search.select()\n\n    for row in rows:\n        reviewRating = row.review_rating\n        reviewRating = reviewRating - 1\n        row.update_record(review_rating=reviewRating)\n\n    reviewID = request.args[0]\n    userID = auth.user.id\n    db.review_rate_link.insert(user_id=userID,review_id=reviewID)\n\n    for row in db(db.auth_user.id == userID, db.auth_user.reviewer_score).select():\n        reviewerScore = row.reviewer_score\n        if reviewerScore == None:\n            reviewerScore = 0\n        reviewerScore = reviewerScore - 1\n        row.update_record(reviewer_score=reviewerScore)\n\n    return locals()\n\ndef searchProduct():\n    form = FORM(\'\',\n              DIV(LABEL(\'Product Name:\',_class=\'control-label col-sm-3\'),\n                  DIV(INPUT(_name=\'productName\', _class=\'form-control string\'),\n                      _class=\'col-sm-9\'), _class=\'form-group\'),\n\n              DIV(LABEL(\'Product Tag:\',_class=\'control-label col-sm-3\'),\n                  DIV(INPUT(_name=\'tagOne\', _class=\'form-control string\'),\n                      _class=\'col-sm-9\'), _class=\'form-group\'),\n\n              DIV(LABEL(\'Product Tag:\',_class=\'control-label col-sm-3\'),\n                  DIV(INPUT(_name=\'tagTwo\', _class=\'form-control string\'),\n                      _class=\'col-sm-9\'), _class=\'form-group\'),\n\n              DIV(LABEL(\'Product Tag:\',_class=\'control-label col-sm-3\'),\n                  DIV(INPUT(_name=\'tagThree\', _class=\'form-control string\'),\n                      _class=\'col-sm-9\'), _class=\'form-group\'),\n\n              DIV(DIV(INPUT(_type=\'submit\', _class="btn btn-primary"),\n                      _class=\'col-sm-9 col-sm-offset-3\'), _class=\'form-group\'))\n    if form.accepts(request,session):\n        response.flash = \'form accepted\'\n    elif form.errors:\n        response.flash = \'form has errors\'\n    else:\n        response.flash = \'please fill the form\'\n\n    searchCheck = False\n    if request.vars:\n        statementBuild = ""\n        searchProductName = request.vars.productName\n        if searchProductName == None:\n            searchProductName = ""\n        searchProductName = "%" + searchProductName + "%"\n\n        searchTagOne = request.vars.tagOne\n        if searchTagOne == None:\n            searchTagOne = ""\n        searchTagOne = "%" + searchTagOne + "%"\n\n        searchTagTwo = request.vars.tagTwo\n        if searchTagTwo == None:\n            searchTagTwo = ""\n        searchTagTwo = "%" + searchTagTwo + "%"\n\n        searchTagThree = request.vars.tagThree\n        if searchTagThree == None:\n            searchTagThree = ""\n        searchTagThree = "%" + searchTagThree + "%"\n\n        i = 0\n        for row in db(db.products.product_name.like(searchProductName) and\n                     db.products.tag_1.like(searchTagOne) and\n                     db.products.tag_2.like(searchTagTwo) and\n                     db.products.tag_3.like(searchTagThree)).select(db.products.ALL):\n            i = i + 1\n        productName = [0] * i\n        productDescription = [0] * i\n        productImage = [0] * i\n        productPrice = [0] * i\n        productTag1 = [0] * i\n        productTag2 = [0] * i\n        productTag3 = [0] * i\n        ProductTimeStamp = [0] * i\n        i = 0\n        for row in db(db.products.product_name.like(searchProductName) and\n                     db.products.tag_1.like(searchTagOne) and\n                     db.products.tag_2.like(searchTagTwo) and\n                     db.products.tag_3.like(searchTagThree)).select(db.products.ALL):\n            productName [i] = row.product_name\n            productDescription [i] = row.product_description\n            productImage [i] = row.product_image\n            productPrice [i] = row.product_price\n            productTag1 [i] = row.tag_1\n            productTag2 [i] = row.tag_2\n            productTag3 [i] = row.tag_3\n            ProductTimeStamp [i] = row.time_stamp\n            i = i + 1\n        searchCheck = True\n\n    return locals()\n\ndef getReviews():\n    userID = request.args[0]\n    userName = request.args[1]\n\n    review = db.reviews\n    reviewID = review.reviewer_id\n    query = reviewID == userID\n    search = db(query)\n    rows = search.select()\n\n    return locals()\n\ndef user():\n    """\n    exposes:\n    http://..../[app]/default/user/login\n    http://..../[app]/default/user/logout\n    http://..../[app]/default/user/register\n    http://..../[app]/default/user/profile\n    http://..../[app]/default/user/retrieve_password\n    http://..../[app]/default/user/change_password\n    http://..../[app]/default/user/bulk_register\n    use @auth.requires_login()\n        @auth.requires_membership(\'group name\')\n        @auth.requires_permission(\'read\',\'table name\',record_id)\n    to decorate functions that need access control\n    also notice there is http://..../[app]/appadmin/manage/auth to allow administrator to manage users\n    """\n    return dict(form=auth())\n\n\n@cache.action()\ndef download():\n    """\n    allows downloading of uploaded files\n    http://..../[app]/default/download/[filename]\n    """\n    return response.download(request, db)\n\n\ndef call():\n    """\n    exposes services. for example:\n    http://..../[app]/default/call/jsonrpc\n    decorate with @services.jsonrpc the functions to expose\n    supports xml, json, xmlrpc, jsonrpc, amfrpc, rss, csv\n    """\n    return service()\n\nresponse._vars=response._caller(newProduct)\n'
p7
sS'snapshot'
p8
(dp9
S'exception'
p10
(dp11
S'__getslice__'
p12
S"<method-wrapper '__getslice__' of exceptions.IOError object>"
p13
sS'__str__'
p14
S"<method-wrapper '__str__' of exceptions.IOError object>"
p15
sS'__reduce__'
p16
S'<built-in method __reduce__ of exceptions.IOError object>'
p17
sS'__dict__'
p18
S'{}'
p19
sS'__sizeof__'
p20
S'<built-in method __sizeof__ of exceptions.IOError object>'
p21
sS'__init__'
p22
S"<method-wrapper '__init__' of exceptions.IOError object>"
p23
sS'__setattr__'
p24
S"<method-wrapper '__setattr__' of exceptions.IOError object>"
p25
sS'__reduce_ex__'
p26
S'<built-in method __reduce_ex__ of exceptions.IOError object>'
p27
sS'__new__'
p28
S'<built-in method __new__ of type object>'
p29
sS'errno'
p30
S'2'
sS'__format__'
p31
S'<built-in method __format__ of exceptions.IOError object>'
p32
sS'__class__'
p33
S"<type 'exceptions.IOError'>"
p34
sS'filename'
p35
S"r'C:\\Users\\robta\\OneDrive\\Documents\\GitHub\\Commodi...c69656e4c65617468657250616e74735f30312e6a7067.jpg'"
p36
sS'__doc__'
p37
S"'I/O operation failed.'"
p38
sS'__getitem__'
p39
S"<method-wrapper '__getitem__' of exceptions.IOError object>"
p40
sS'__setstate__'
p41
S'<built-in method __setstate__ of exceptions.IOError object>'
p42
sS'__getattribute__'
p43
S"<method-wrapper '__getattribute__' of exceptions.IOError object>"
p44
sS'args'
p45
S"(2, 'No such file or directory')"
p46
sS'__subclasshook__'
p47
S'<built-in method __subclasshook__ of type object>'
p48
sS'__unicode__'
p49
S'<built-in method __unicode__ of exceptions.IOError object>'
p50
sS'strerror'
p51
S"'No such file or directory'"
p52
sS'__delattr__'
p53
S"<method-wrapper '__delattr__' of exceptions.IOError object>"
p54
sS'__repr__'
p55
S"<method-wrapper '__repr__' of exceptions.IOError object>"
p56
sS'__hash__'
p57
S"<method-wrapper '__hash__' of exceptions.IOError object>"
p58
ssS'evalue'
p59
S"[Errno 2] No such file or directory: 'C:\\\\Users\\\\robta\\\\OneDrive\\\\Documents\\\\GitHub\\\\Commodity\\\\applications\\\\Commodity\\\\databases\\\\..\\\\uploads\\\\products.product_image.aa73fd41ef4eeb76.54616c6c5f536b696e6e795f4461696e657365526163696e6744314a61636b65745f4461696e657365416c69656e4c65617468657250616e74735f30312e6a7067.jpg'"
p60
sS'request'
p61
cgluon.html
XML_unpickle
p62
(S's\x92_\x00\x00<div><table><tr><td style="font-weight:bold;vertical-align:top;">ajax</td><td style="vertical-align:top;">:</td><td><div>False</div></td></tr><tr><td style="font-weight:bold;vertical-align:top;">application</td><td style="vertical-align:top;">:</td><td><div>Commodity</div></td></tr><tr><td style="font-weight:bold;vertical-align:top;">args</td><td style="vertical-align:top;">:</td><td><div><table></table></div></td></tr><tr><td style="font-weight:bold;vertical-align:top;">cid</td><td style="vertical-align:top;">:</td><td><div>None</div></td></tr><tr><td style="font-weight:bold;vertical-align:top;">client</td><td style="vertical-align:top;">:</td><td><div>127.0.0.1</div></td></tr><tr><td style="font-weight:bold;vertical-align:top;">controller</td><td style="vertical-align:top;">:</td><td><div>default</div></td></tr><tr><td style="font-weight:bold;vertical-align:top;">cookies</td><td style="vertical-align:top;">:</td><td><div><table><tr><td style="font-weight:bold;vertical-align:top;">session_id_admin</td><td style="vertical-align:top;">:</td><td><div>127.0.0.1-32fb138d-f6aa-4306-afee-39e6074bfe35<table><tr><td style="font-weight:bold;vertical-align:top;">comment</td><td style="vertical-align:top;">:</td><td><div></div></td></tr><tr><td style="font-weight:bold;vertical-align:top;">domain</td><td style="vertical-align:top;">:</td><td><div></div></td></tr><tr><td style="font-weight:bold;vertical-align:top;">expires</td><td style="vertical-align:top;">:</td><td><div></div></td></tr><tr><td style="font-weight:bold;vertical-align:top;">httponly</td><td style="vertical-align:top;">:</td><td><div></div></td></tr><tr><td style="font-weight:bold;vertical-align:top;">max-age</td><td style="vertical-align:top;">:</td><td><div></div></td></tr><tr><td style="font-weight:bold;vertical-align:top;">path</td><td style="vertical-align:top;">:</td><td><div></div></td></tr><tr><td style="font-weight:bold;vertical-align:top;">secure</td><td style="vertical-align:top;">:</td><td><div></div></td></tr><tr><td style="font-weight:bold;vertical-align:top;">version</td><td style="vertical-align:top;">:</td><td><div></div></td></tr></table></div></td></tr><tr><td style="font-weight:bold;vertical-align:top;">session_id_commodity</td><td style="vertical-align:top;">:</td><td><div>127.0.0.1-a3c3437d-0da1-49b8-8a1f-11d5088af117<table><tr><td style="font-weight:bold;vertical-align:top;">comment</td><td style="vertical-align:top;">:</td><td><div></div></td></tr><tr><td style="font-weight:bold;vertical-align:top;">domain</td><td style="vertical-align:top;">:</td><td><div></div></td></tr><tr><td style="font-weight:bold;vertical-align:top;">expires</td><td style="vertical-align:top;">:</td><td><div></div></td></tr><tr><td style="font-weight:bold;vertical-align:top;">httponly</td><td style="vertical-align:top;">:</td><td><div></div></td></tr><tr><td style="font-weight:bold;vertical-align:top;">max-age</td><td style="vertical-align:top;">:</td><td><div></div></td></tr><tr><td style="font-weight:bold;vertical-align:top;">path</td><td style="vertical-align:top;">:</td><td><div></div></td></tr><tr><td style="font-weight:bold;vertical-align:top;">secure</td><td style="vertical-align:top;">:</td><td><div></div></td></tr><tr><td style="font-weight:bold;vertical-align:top;">version</td><td style="vertical-align:top;">:</td><td><div></div></td></tr></table></div></td></tr></table></div></td></tr><tr><td style="font-weight:bold;vertical-align:top;">env</td><td style="vertical-align:top;">:</td><td><div><table><tr><td style="font-weight:bold;vertical-align:top;">CONTENT_LENGTH</td><td style="vertical-align:top;">:</td><td><div>21429539</div></td></tr><tr><td style="font-weight:bold;vertical-align:top;">CONTENT_TYPE</td><td style="vertical-align:top;">:</td><td><div>multipart/form-data; boundary=---------------------------7e14231510d0</div></td></tr><tr><td style="font-weight:bold;vertical-align:top;">HTTP_ACCEPT</td><td style="vertical-align:top;">:</td><td><div>text/html, application/xhtml+xml, image/jxr, */*</div></td></tr><tr><td style="font-weight:bold;vertical-align:top;">HTTP_ACCEPT_ENCODING</td><td style="vertical-align:top;">:</td><td><div>gzip, deflate</div></td></tr><tr><td style="font-weight:bold;vertical-align:top;">HTTP_ACCEPT_LANGUAGE</td><td style="vertical-align:top;">:</td><td><div>en-GB,en;q=0.5</div></td></tr><tr><td style="font-weight:bold;vertical-align:top;">HTTP_CACHE_CONTROL</td><td style="vertical-align:top;">:</td><td><div>no-cache</div></td></tr><tr><td style="font-weight:bold;vertical-align:top;">HTTP_CONNECTION</td><td style="vertical-align:top;">:</td><td><div>Keep-Alive</div></td></tr><tr><td style="font-weight:bold;vertical-align:top;">HTTP_CONTENT_LENGTH</td><td style="vertical-align:top;">:</td><td><div>21429539</div></td></tr><tr><td style="font-weight:bold;vertical-align:top;">HTTP_CONTENT_TYPE</td><td style="vertical-align:top;">:</td><td><div>multipart/form-data; boundary=---------------------------7e14231510d0</div></td></tr><tr><td style="font-weight:bold;vertical-align:top;">HTTP_COOKIE</td><td style="vertical-align:top;">:</td><td><div>session_id_commodity=127.0.0.1-a3c3437d-0da1-49b8-8a1f-11d5088af117; session_id_admin=127.0.0.1-32fb138d-f6aa-4306-afee-39e6074bfe35</div></td></tr><tr><td style="font-weight:bold;vertical-align:top;">HTTP_DNT</td><td style="vertical-align:top;">:</td><td><div>1</div></td></tr><tr><td style="font-weight:bold;vertical-align:top;">HTTP_HOST</td><td style="vertical-align:top;">:</td><td><div>127.0.0.1:8000</div></td></tr><tr><td style="font-weight:bold;vertical-align:top;">HTTP_REFERER</td><td style="vertical-align:top;">:</td><td><div>http://127.0.0.1:8000/Commodity/default/newProduct</div></td></tr><tr><td style="font-weight:bold;vertical-align:top;">HTTP_USER_AGENT</td><td style="vertical-align:top;">:</td><td><div>Mozilla/5.0 (Windows NT 10.0; Win64; x64) AppleWebKit/537.36 (KHTML, like Gecko) Chrome/52.0.2743.116 Safari/537.36 Edge/15.15063</div></td></tr><tr><td style="font-weight:bold;vertical-align:top;">PATH_INFO</td><td style="vertical-align:top;">:</td><td><div>/Commodity/default/newProduct</div></td></tr><tr><td style="font-weight:bold;vertical-align:top;">QUERY_STRING</td><td style="vertical-align:top;">:</td><td><div></div></td></tr><tr><td style="font-weight:bold;vertical-align:top;">REMOTE_ADDR</td><td style="vertical-align:top;">:</td><td><div>127.0.0.1</div></td></tr><tr><td style="font-weight:bold;vertical-align:top;">REMOTE_PORT</td><td style="vertical-align:top;">:</td><td><div>55726</div></td></tr><tr><td style="font-weight:bold;vertical-align:top;">REQUEST_METHOD</td><td style="vertical-align:top;">:</td><td><div>POST</div></td></tr><tr><td style="font-weight:bold;vertical-align:top;">SCRIPT_NAME</td><td style="vertical-align:top;">:</td><td><div></div></td></tr><tr><td style="font-weight:bold;vertical-align:top;">SERVER_NAME</td><td style="vertical-align:top;">:</td><td><div>Rob-Desktop</div></td></tr><tr><td style="font-weight:bold;vertical-align:top;">SERVER_PORT</td><td style="vertical-align:top;">:</td><td><div>8000</div></td></tr><tr><td style="font-weight:bold;vertical-align:top;">SERVER_PROTOCOL</td><td style="vertical-align:top;">:</td><td><div>HTTP/1.1</div></td></tr><tr><td style="font-weight:bold;vertical-align:top;">SERVER_SOFTWARE</td><td style="vertical-align:top;">:</td><td><div>Rocket 1.2.6</div></td></tr><tr><td style="font-weight:bold;vertical-align:top;">app_folders</td><td style="vertical-align:top;">:</td><td><div>set([&#x27;C:\\\\Users\\\\robta\\\\OneDrive\\\\Documents\\\\GitHub\\\\Commodity\\\\applications\\\\admin\\\\&#x27;, &#x27;C:\\\\Users\\\\robta\\\\OneDrive\\\\Documents\\\\GitHub\\\\Commodity\\\\applications\\\\welcome\\\\&#x27;, &#x27;C:\\\\Users\\\\robta\\\\OneDrive\\\\Documents\\\\GitHub\\\\Commodity\\\\applications\\\\Commodity\\\\&#x27;])</div></td></tr><tr><td style="font-weight:bold;vertical-align:top;">applications_parent</td><td style="vertical-align:top;">:</td><td><div>C:\\Users\\robta\\OneDrive\\Documents\\GitHub\\Commodity</div></td></tr><tr><td style="font-weight:bold;vertical-align:top;">cmd_args</td><td style="vertical-align:top;">:</td><td><div><table></table></div></td></tr><tr><td style="font-weight:bold;vertical-align:top;">cmd_options</td><td style="vertical-align:top;">:</td><td><div>&lt;Values at 0x28c3cd8: {&#x27;verbose&#x27;: False, &#x27;ip&#x27;: &#x27;127.0.0.1&#x27;, &#x27;debuglevel&#x27;: 30, &#x27;with_scheduler&#x27;: False, &#x27;shutdown_timeout&#x27;: 5, &#x27;taskbar&#x27;: False, &#x27;with_coverage&#x27;: False, &#x27;pid_filename&#x27;: &#x27;httpserver.pid&#x27;, &#x27;maxthreads&#x27;: None, &#x27;softcron&#x27;: False, &#x27;server_name&#x27;: &#x27;Rob-Desktop&#x27;, &#x27;bpython&#x27;: False, &#x27;nogui&#x27;: False, &#x27;port&#x27;: 8000, &#x27;print_errors&#x27;: False, &#x27;extcron&#x27;: False, &#x27;runcron&#x27;: False, &#x27;run_system_tests&#x27;: False, &#x27;test&#x27;: None, &#x27;folder&#x27;: &#x27;C:\\\\Users\\\\robta\\\\OneDrive\\\\Documents\\\\GitHub\\\\Commodity&#x27;, &#x27;config&#x27;: &#x27;&#x27;, &#x27;minthreads&#x27;: None, &#x27;shell&#x27;: None, &#x27;run&#x27;: &#x27;&#x27;, &#x27;log_filename&#x27;: &#x27;httpserver.log&#x27;, &#x27;profiler_dir&#x27;: None, &#x27;args&#x27;: [&#x27;&#x27;], &#x27;socket_timeout&#x27;: 5, &#x27;ssl_ca_certificate&#x27;: None, &#x27;scheduler&#x27;: None, &#x27;interfaces&#x27;: None, &#x27;ssl_private_key&#x27;: &#x27;&#x27;, &#x27;gae&#x27;: None, &#x27;password&#x27;: &#x27;******&#x27;, &#x27;request_queue_size&#x27;: 5, &#x27;ssl_certificate&#x27;: &#x27;&#x27;, &#x27;cronjob&#x27;: False, &#x27;numthreads&#x27;: None, &#x27;quiet&#x27;: False, &#x27;import_models&#x27;: False, &#x27;timeout&#x27;: 10, &#x27;plain&#x27;: False, &#x27;nobanner&#x27;: False}&gt;</div></td></tr><tr><td style="font-weight:bold;vertical-align:top;">content_length</td><td style="vertical-align:top;">:</td><td><div>21429539</div></td></tr><tr><td style="font-weight:bold;vertical-align:top;">content_type</td><td style="vertical-align:top;">:</td><td><div>multipart/form-data; boundary=---------------------------7e14231510d0</div></td></tr><tr><td style="font-weight:bold;vertical-align:top;">db_sessions</td><td style="vertical-align:top;">:</td><td><div>set([])</div></td></tr><tr><td style="font-weight:bold;vertical-align:top;">debugging</td><td style="vertical-align:top;">:</td><td><div>True</div></td></tr><tr><td style="font-weight:bold;vertical-align:top;">gluon_parent</td><td style="vertical-align:top;">:</td><td><div>C:\\Users\\robta\\OneDrive\\Documents\\GitHub\\Commodity</div></td></tr><tr><td style="font-weight:bold;vertical-align:top;">http_accept</td><td style="vertical-align:top;">:</td><td><div>text/html, application/xhtml+xml, image/jxr, */*</div></td></tr><tr><td style="font-weight:bold;vertical-align:top;">http_accept_encoding</td><td style="vertical-align:top;">:</td><td><div>gzip, deflate</div></td></tr><tr><td style="font-weight:bold;vertical-align:top;">http_accept_language</td><td style="vertical-align:top;">:</td><td><div>en-GB,en;q=0.5</div></td></tr><tr><td style="font-weight:bold;vertical-align:top;">http_cache_control</td><td style="vertical-align:top;">:</td><td><div>no-cache</div></td></tr><tr><td style="font-weight:bold;vertical-align:top;">http_connection</td><td style="vertical-align:top;">:</td><td><div>Keep-Alive</div></td></tr><tr><td style="font-weight:bold;vertical-align:top;">http_content_length</td><td style="vertical-align:top;">:</td><td><div>21429539</div></td></tr><tr><td style="font-weight:bold;vertical-align:top;">http_content_type</td><td style="vertical-align:top;">:</td><td><div>multipart/form-data; boundary=---------------------------7e14231510d0</div></td></tr><tr><td style="font-weight:bold;vertical-align:top;">http_cookie</td><td style="vertical-align:top;">:</td><td><div>session_id_commodity=127.0.0.1-a3c3437d-0da1-49b8-8a1f-11d5088af117; session_id_admin=127.0.0.1-32fb138d-f6aa-4306-afee-39e6074bfe35</div></td></tr><tr><td style="font-weight:bold;vertical-align:top;">http_dnt</td><td style="vertical-align:top;">:</td><td><div>1</div></td></tr><tr><td style="font-weight:bold;vertical-align:top;">http_host</td><td style="vertical-align:top;">:</td><td><div>127.0.0.1:8000</div></td></tr><tr><td style="font-weight:bold;vertical-align:top;">http_referer</td><td style="vertical-align:top;">:</td><td><div>http://127.0.0.1:8000/Commodity/default/newProduct</div></td></tr><tr><td style="font-weight:bold;vertical-align:top;">http_user_agent</td><td style="vertical-align:top;">:</td><td><div>Mozilla/5.0 (Windows NT 10.0; Win64; x64) AppleWebKit/537.36 (KHTML, like Gecko) Chrome/52.0.2743.116 Safari/537.36 Edge/15.15063</div></td></tr><tr><td style="font-weight:bold;vertical-align:top;">is_jython</td><td style="vertical-align:top;">:</td><td><div>False</div></td></tr><tr><td style="font-weight:bold;vertical-align:top;">is_pypy</td><td style="vertical-align:top;">:</td><td><div>False</div></td></tr><tr><td style="font-weight:bold;vertical-align:top;">is_source</td><td style="vertical-align:top;">:</td><td><div>False</div></td></tr><tr><td style="font-weight:bold;vertical-align:top;">local_hosts</td><td style="vertical-align:top;">:</td><td><div><table><tr><td><div>fe80::f1bb:9b12:cd8f:bc48%10</div></td></tr><tr><td><div>192.168.1.20</div></td></tr><tr><td><div>2001:0:4137:9e76:48c:1411:3f57:feeb</div></td></tr><tr><td><div>::ffff:127.0.0.1</div></td></tr><tr><td><div>::1</div></td></tr><tr><td><div>Rob-Desktop</div></td></tr><tr><td><div>fe80::48c:1411:3f57:feeb%12</div></td></tr><tr><td><div>127.0.0.1</div></td></tr></table></div></td></tr><tr><td style="font-weight:bold;vertical-align:top;">path_info</td><td style="vertical-align:top;">:</td><td><div>/Commodity/default/newProduct</div></td></tr><tr><td style="font-weight:bold;vertical-align:top;">query_string</td><td style="vertical-align:top;">:</td><td><div></div></td></tr><tr><td style="font-weight:bold;vertical-align:top;">remote_addr</td><td style="vertical-align:top;">:</td><td><div>127.0.0.1</div></td></tr><tr><td style="font-weight:bold;vertical-align:top;">remote_port</td><td style="vertical-align:top;">:</td><td><div>55726</div></td></tr><tr><td style="font-weight:bold;vertical-align:top;">request_method</td><td style="vertical-align:top;">:</td><td><div>POST</div></td></tr><tr><td style="font-weight:bold;vertical-align:top;">request_uri</td><td style="vertical-align:top;">:</td><td><div>/Commodity/default/newProduct</div></td></tr><tr><td style="font-weight:bold;vertical-align:top;">script_name</td><td style="vertical-align:top;">:</td><td><div></div></td></tr><tr><td style="font-weight:bold;vertical-align:top;">server_name</td><td style="vertical-align:top;">:</td><td><div>Rob-Desktop</div></td></tr><tr><td style="font-weight:bold;vertical-align:top;">server_port</td><td style="vertical-align:top;">:</td><td><div>8000</div></td></tr><tr><td style="font-weight:bold;vertical-align:top;">server_protocol</td><td style="vertical-align:top;">:</td><td><div>HTTP/1.1</div></td></tr><tr><td style="font-weight:bold;vertical-align:top;">server_software</td><td style="vertical-align:top;">:</td><td><div>Rocket 1.2.6</div></td></tr><tr><td style="font-weight:bold;vertical-align:top;">web2py_path</td><td style="vertical-align:top;">:</td><td><div>C:\\Users\\robta\\OneDrive\\Documents\\GitHub\\Commodity</div></td></tr><tr><td style="font-weight:bold;vertical-align:top;">web2py_version</td><td style="vertical-align:top;">:</td><td><div>2.14.6-stable+timestamp.2016.05.10.00.21.47</div></td></tr><tr><td style="font-weight:bold;vertical-align:top;">wsgi.errors</td><td style="vertical-align:top;">:</td><td><div>&lt;open file &#x27;&lt;stderr&gt;&#x27;, mode &#x27;w&#x27; at 0x022ED0D0&gt;</div></td></tr><tr><td style="font-weight:bold;vertical-align:top;">wsgi.file_wrapper</td><td style="vertical-align:top;">:</td><td><div>&lt;class wsgiref.util.FileWrapper at 0x03C3C110&gt;</div></td></tr><tr><td style="font-weight:bold;vertical-align:top;">wsgi.input</td><td style="vertical-align:top;">:</td><td><div>&lt;socket._fileobject object at 0x0B60DB70&gt;</div></td></tr><tr><td style="font-weight:bold;vertical-align:top;">wsgi.multiprocess</td><td style="vertical-align:top;">:</td><td><div>False</div></td></tr><tr><td style="font-weight:bold;vertical-align:top;">wsgi.multithread</td><td style="vertical-align:top;">:</td><td><div>True</div></td></tr><tr><td style="font-weight:bold;vertical-align:top;">wsgi.run_once</td><td style="vertical-align:top;">:</td><td><div>False</div></td></tr><tr><td style="font-weight:bold;vertical-align:top;">wsgi.url_scheme</td><td style="vertical-align:top;">:</td><td><div>http</div></td></tr><tr><td style="font-weight:bold;vertical-align:top;">wsgi.version</td><td style="vertical-align:top;">:</td><td><div><table><tr><td><div>1</div></td></tr><tr><td><div>0</div></td></tr></table></div></td></tr><tr><td style="font-weight:bold;vertical-align:top;">wsgi_errors</td><td style="vertical-align:top;">:</td><td><div>&lt;open file &#x27;&lt;stderr&gt;&#x27;, mode &#x27;w&#x27; at 0x022ED0D0&gt;</div></td></tr><tr><td style="font-weight:bold;vertical-align:top;">wsgi_file_wrapper</td><td style="vertical-align:top;">:</td><td><div>&lt;class wsgiref.util.FileWrapper at 0x03C3C110&gt;</div></td></tr><tr><td style="font-weight:bold;vertical-align:top;">wsgi_input</td><td style="vertical-align:top;">:</td><td><div>&lt;socket._fileobject object at 0x0B60DB70&gt;</div></td></tr><tr><td style="font-weight:bold;vertical-align:top;">wsgi_multiprocess</td><td style="vertical-align:top;">:</td><td><div>False</div></td></tr><tr><td style="font-weight:bold;vertical-align:top;">wsgi_multithread</td><td style="vertical-align:top;">:</td><td><div>True</div></td></tr><tr><td style="font-weight:bold;vertical-align:top;">wsgi_run_once</td><td style="vertical-align:top;">:</td><td><div>False</div></td></tr><tr><td style="font-weight:bold;vertical-align:top;">wsgi_url_scheme</td><td style="vertical-align:top;">:</td><td><div>http</div></td></tr><tr><td style="font-weight:bold;vertical-align:top;">wsgi_version</td><td style="vertical-align:top;">:</td><td><div><table><tr><td><div>1</div></td></tr><tr><td><div>0</div></td></tr></table></div></td></tr></table></div></td></tr><tr><td style="font-weight:bold;vertical-align:top;">extension</td><td style="vertical-align:top;">:</td><td><div>html</div></td></tr><tr><td style="font-weight:bold;vertical-align:top;">folder</td><td style="vertical-align:top;">:</td><td><div>C:\\Users\\robta\\OneDrive\\Documents\\GitHub\\Commodity\\applications\\Commodity\\</div></td></tr><tr><td style="font-weight:bold;vertical-align:top;">function</td><td style="vertical-align:top;">:</td><td><div>newProduct</div></td></tr><tr><td style="font-weight:bold;vertical-align:top;">global_settings</td><td style="vertical-align:top;">:</td><td><div><table><tr><td style="font-weight:bold;vertical-align:top;">app_folders</td><td style="vertical-align:top;">:</td><td><div>set([&#x27;C:\\\\Users\\\\robta\\\\OneDrive\\\\Documents\\\\GitHub\\\\Commodity\\\\applications\\\\admin\\\\&#x27;, &#x27;C:\\\\Users\\\\robta\\\\OneDrive\\\\Documents\\\\GitHub\\\\Commodity\\\\applications\\\\welcome\\\\&#x27;, &#x27;C:\\\\Users\\\\robta\\\\OneDrive\\\\Documents\\\\GitHub\\\\Commodity\\\\applications\\\\Commodity\\\\&#x27;])</div></td></tr><tr><td style="font-weight:bold;vertical-align:top;">applications_parent</td><td style="vertical-align:top;">:</td><td><div>C:\\Users\\robta\\OneDrive\\Documents\\GitHub\\Commodity</div></td></tr><tr><td style="font-weight:bold;vertical-align:top;">cmd_args</td><td style="vertical-align:top;">:</td><td><div><table></table></div></td></tr><tr><td style="font-weight:bold;vertical-align:top;">cmd_options</td><td style="vertical-align:top;">:</td><td><div>&lt;Values at 0x28c3cd8: {&#x27;verbose&#x27;: False, &#x27;ip&#x27;: &#x27;127.0.0.1&#x27;, &#x27;debuglevel&#x27;: 30, &#x27;with_scheduler&#x27;: False, &#x27;shutdown_timeout&#x27;: 5, &#x27;taskbar&#x27;: False, &#x27;with_coverage&#x27;: False, &#x27;pid_filename&#x27;: &#x27;httpserver.pid&#x27;, &#x27;maxthreads&#x27;: None, &#x27;softcron&#x27;: False, &#x27;server_name&#x27;: &#x27;Rob-Desktop&#x27;, &#x27;bpython&#x27;: False, &#x27;nogui&#x27;: False, &#x27;port&#x27;: 8000, &#x27;print_errors&#x27;: False, &#x27;extcron&#x27;: False, &#x27;runcron&#x27;: False, &#x27;run_system_tests&#x27;: False, &#x27;test&#x27;: None, &#x27;folder&#x27;: &#x27;C:\\\\Users\\\\robta\\\\OneDrive\\\\Documents\\\\GitHub\\\\Commodity&#x27;, &#x27;config&#x27;: &#x27;&#x27;, &#x27;minthreads&#x27;: None, &#x27;shell&#x27;: None, &#x27;run&#x27;: &#x27;&#x27;, &#x27;log_filename&#x27;: &#x27;httpserver.log&#x27;, &#x27;profiler_dir&#x27;: None, &#x27;args&#x27;: [&#x27;&#x27;], &#x27;socket_timeout&#x27;: 5, &#x27;ssl_ca_certificate&#x27;: None, &#x27;scheduler&#x27;: None, &#x27;interfaces&#x27;: None, &#x27;ssl_private_key&#x27;: &#x27;&#x27;, &#x27;gae&#x27;: None, &#x27;password&#x27;: &#x27;******&#x27;, &#x27;request_queue_size&#x27;: 5, &#x27;ssl_certificate&#x27;: &#x27;&#x27;, &#x27;cronjob&#x27;: False, &#x27;numthreads&#x27;: None, &#x27;quiet&#x27;: False, &#x27;import_models&#x27;: False, &#x27;timeout&#x27;: 10, &#x27;plain&#x27;: False, &#x27;nobanner&#x27;: False}&gt;</div></td></tr><tr><td style="font-weight:bold;vertical-align:top;">db_sessions</td><td style="vertical-align:top;">:</td><td><div>set([])</div></td></tr><tr><td style="font-weight:bold;vertical-align:top;">debugging</td><td style="vertical-align:top;">:</td><td><div>True</div></td></tr><tr><td style="font-weight:bold;vertical-align:top;">gluon_parent</td><td style="vertical-align:top;">:</td><td><div>C:\\Users\\robta\\OneDrive\\Documents\\GitHub\\Commodity</div></td></tr><tr><td style="font-weight:bold;vertical-align:top;">is_jython</td><td style="vertical-align:top;">:</td><td><div>False</div></td></tr><tr><td style="font-weight:bold;vertical-align:top;">is_pypy</td><td style="vertical-align:top;">:</td><td><div>False</div></td></tr><tr><td style="font-weight:bold;vertical-align:top;">is_source</td><td style="vertical-align:top;">:</td><td><div>False</div></td></tr><tr><td style="font-weight:bold;vertical-align:top;">local_hosts</td><td style="vertical-align:top;">:</td><td><div><table><tr><td><div>fe80::f1bb:9b12:cd8f:bc48%10</div></td></tr><tr><td><div>192.168.1.20</div></td></tr><tr><td><div>2001:0:4137:9e76:48c:1411:3f57:feeb</div></td></tr><tr><td><div>::ffff:127.0.0.1</div></td></tr><tr><td><div>::1</div></td></tr><tr><td><div>Rob-Desktop</div></td></tr><tr><td><div>fe80::48c:1411:3f57:feeb%12</div></td></tr><tr><td><div>127.0.0.1</div></td></tr></table></div></td></tr><tr><td style="font-weight:bold;vertical-align:top;">web2py_version</td><td style="vertical-align:top;">:</td><td><div>2.14.6-stable+timestamp.2016.05.10.00.21.47</div></td></tr></table></div></td></tr><tr><td style="font-weight:bold;vertical-align:top;">is_https</td><td style="vertical-align:top;">:</td><td><div>False</div></td></tr><tr><td style="font-weight:bold;vertical-align:top;">is_local</td><td style="vertical-align:top;">:</td><td><div>True</div></td></tr><tr><td style="font-weight:bold;vertical-align:top;">is_restful</td><td style="vertical-align:top;">:</td><td><div>False</div></td></tr><tr><td style="font-weight:bold;vertical-align:top;">is_scheduler</td><td style="vertical-align:top;">:</td><td><div>False</div></td></tr><tr><td style="font-weight:bold;vertical-align:top;">is_shell</td><td style="vertical-align:top;">:</td><td><div>False</div></td></tr><tr><td style="font-weight:bold;vertical-align:top;">now</td><td style="vertical-align:top;">:</td><td><div>datetime.datetime(2017, 4, 29, 17, 12, 3, 70000)</div></td></tr><tr><td style="font-weight:bold;vertical-align:top;">raw_args</td><td style="vertical-align:top;">:</td><td><div></div></td></tr><tr><td style="font-weight:bold;vertical-align:top;">raw_extension</td><td style="vertical-align:top;">:</td><td><div>None</div></td></tr><tr><td style="font-weight:bold;vertical-align:top;">url</td><td style="vertical-align:top;">:</td><td><div>/Commodity/default/newProduct</div></td></tr><tr><td style="font-weight:bold;vertical-align:top;">utcnow</td><td style="vertical-align:top;">:</td><td><div>datetime.datetime(2017, 4, 29, 16, 12, 3, 70000)</div></td></tr><tr><td style="font-weight:bold;vertical-align:top;">wsgi</td><td style="vertical-align:top;">:</td><td><div>&lt;gluon.main.LazyWSGI object at 0x0B9650D0&gt;</div></td></tr></table></div>'
tRp63
sS'frames'
p64
(lp65
(dp66
S'file'
p67
S'C:\\Users\\robta\\OneDrive\\Documents\\GitHub\\Commodity\\gluon\\restricted.py'
p68
sS'dump'
p69
(dp70
S'environment'
p71
S"{'A': <class 'gluon.html.A'>, 'ANY_OF': <class 'gluon.validators.ANY_OF'>, 'ASSIGNJS': <function ASSIGNJS>, 'AppConfig': <function AppConfig>, 'Auth': <class 'gluon.tools.Auth'>, 'B': <class 'gluon.html.B'>, 'BEAUTIFY': <class 'gluon.html.BEAUTIFY'>, 'BODY': <class 'gluon.html.BODY'>, 'BR': <class 'gluon.html.BR'>, 'BUTTON': <class 'gluon.html.BUTTON'>, ...}"
p72
sS'ccode'
p73
S'<code object <module> at 0B9638D8, file "C:\\User...tions\\Commodity\\controllers/default.py", line 12>'
p74
ssS'lnum'
p75
I227
sS'lines'
p76
(dp77
I224
S'            ccode = code'
p78
sI225
S'        else:'
p79
sI226
S'            ccode = compile2(code, layer)'
p80
sI227
S'        exec ccode in environment'
p81
sI228
S'    except HTTP:'
p82
sI229
S'        raise'
p83
sI230
S'    except RestrictedError:'
p84
sI231
S'        # do not encapsulate (obfuscate) the original RestrictedError'
p85
sI222
S'    try:'
p86
sI223
S'        if isinstance(code, types.CodeType):'
p87
ssS'call'
p88
S"(code='# -*- coding: utf-8 -*-\\n# this file is released ...e()\\n\\nresponse._vars=response._caller(newProduct)\\n', environment={'A': <class 'gluon.html.A'>, 'ANY_OF': <class 'gluon.validators.ANY_OF'>, 'ASSIGNJS': <function ASSIGNJS>, 'AppConfig': <function AppConfig>, 'Auth': <class 'gluon.tools.Auth'>, 'B': <class 'gluon.html.B'>, 'BEAUTIFY': <class 'gluon.html.BEAUTIFY'>, 'BODY': <class 'gluon.html.BODY'>, 'BR': <class 'gluon.html.BR'>, 'BUTTON': <class 'gluon.html.BUTTON'>, ...}, layer=r'C:\\Users\\robta\\OneDrive\\Documents\\GitHub\\Commodity\\applications\\Commodity\\controllers/default.py')"
p89
sS'func'
p90
S'restricted'
p91
sa(dp92
g67
S'C:\\Users\\robta\\OneDrive\\Documents\\GitHub\\Commodity\\applications\\Commodity\\controllers\\default.py'
p93
sg69
(dp94
sg75
I360
sg76
(dp95
I352
S'    """'
p96
sI353
S'    exposes services. for example:'
p97
sI354
S'    http://..../[app]/default/call/jsonrpc'
p98
sI355
S'    decorate with @services.jsonrpc the functions to expose'
p99
sI356
S'    supports xml, json, xmlrpc, jsonrpc, amfrpc, rss, csv'
p100
sI357
S'    """'
p101
sI358
S'    return service()'
p102
sI349
S''
sI350
S''
sI351
S'def call():'
p103
ssg88
S'()'
p104
sg90
S'<module>'
p105
sa(dp106
g67
S'C:\\Users\\robta\\OneDrive\\Documents\\GitHub\\Commodity\\gluon\\globals.py'
p107
sg69
(dp108
S'self'
p109
S'undefined'
p110
sS'f'
S'<function newProduct>'
p111
ssg75
I417
sg76
(dp112
I416
S'        self._vars = None'
p113
sI417
S'        self._caller = lambda f: f()'
p114
sI418
S'        self._view_environment = None'
p115
sI419
S'        self._custom_commit = None'
p116
sI420
S'        self._custom_rollback = None'
p117
sI421
S"        self.generic_patterns = ['*']"
p118
sI412
S"        self.flash = ''            # used by the default view layout"
p119
sI413
S'        self.meta = Storage()      # used by web2py_ajax.html'
p120
sI414
S'        self.menu = []             # used by the default view layout'
p121
sI415
S'        self.files = []            # used by web2py_ajax.html'
p122
ssg88
S'(f=<function newProduct>)'
p123
sg90
S'<lambda>'
p124
sa(dp125
g67
S'C:\\Users\\robta\\OneDrive\\Documents\\GitHub\\Commodity\\applications\\Commodity\\controllers\\default.py'
p126
sg69
(dp127
S'global db'
p128
S'<DAL uri="sqlite://storage.sqlite">'
p129
sS'global SQLFORM'
p130
S"<class 'gluon.sqlhtml.SQLFORM'>"
p131
sS'db.products'
p132
S'<Table products (id, product_name, product_descr...tag_1, tag_2, tag_3, time_stamp, product_rating)>'
p133
sS').process'
p134
g110
sS'form'
p135
g110
ssg75
I106
sg76
(dp136
I101
S'            reviewerPicture[o] = row.profile_image'
p137
sI102
S'        o = o + 1'
p138
sI103
S'    return locals()'
p139
sI104
S''
sI105
S'def newProduct():'
p140
sI106
S'    form = SQLFORM(db.products).process()'
p141
sI107
S'    return locals()'
p142
sI108
S''
sI109
S'def addRetailer():'
p143
sI110
S'    form = SQLFORM(db.retailers).process()'
p144
ssg88
S'()'
p145
sg90
S'newProduct'
p146
sa(dp147
g67
S'C:\\Users\\robta\\OneDrive\\Documents\\GitHub\\Commodity\\gluon\\html.py'
p148
sg69
(dp149
S'self'
p150
S'<gluon.sqlhtml.SQLFORM object>'
p151
sS'self.validate'
p152
S'<bound method SQLFORM.validate of <gluon.sqlhtml.SQLFORM object>>'
p153
sS'kwargs'
p154
S"{'dbio': True}"
p155
ssg75
I2298
sg76
(dp156
I2293
S'                return dict(form=SQLFORM(db.table).process(onsuccess=my_callback)'
p157
sI2294
S''
sI2295
S''
sI2296
S'        """'
p158
sI2297
S"        kwargs['dbio'] = kwargs.get('dbio', True)  # necessary for SQLHTML forms"
p159
sI2298
S'        self.validate(**kwargs)'
p160
sI2299
S'        return self'
p161
sI2300
S''
sI2301
S'    REDIRECT_JS = "window.location=\'%s\';return false"'
p162
sI2302
S''
ssg88
S"(self=<gluon.sqlhtml.SQLFORM object>, **kwargs={'dbio': True})"
p163
sg90
S'process'
p164
sa(dp165
g67
S'C:\\Users\\robta\\OneDrive\\Documents\\GitHub\\Commodity\\gluon\\html.py'
p166
sg69
(dp167
S'self'
p168
S'<gluon.sqlhtml.SQLFORM object>'
p169
sS'self.accepts'
p170
S'<bound method SQLFORM.accepts of <gluon.sqlhtml.SQLFORM object>>'
p171
sS'kwargs'
p172
S"{'dbio': True, 'request_vars': <Storage {'product_name': '12', 'product_price':...ormkey': '69ac695e-137d-4db5-90fe-2b0e683df6b1'}>, 'session': <Storage {'_formkey[products/create]': ['d7fe0ac...gin]': ['76a3ef0a-c76b-4bd5-8149-d80c7d6e712a']}>}"
p173
ssg75
I2236
sg76
(dp174
I2240
S'                else:'
p175
sI2231
S"        for key in ('message_onsuccess', 'message_onfailure', 'onsuccess',"
p176
sI2232
S"                    'onfailure', 'next', 'message_onchange', 'onchange'):"
p177
sI2233
S'            if key in kwargs:'
p178
sI2234
S'                del kwargs[key]'
p179
sI2235
S''
sI2236
S'        if self.accepts(**kwargs):'
p180
sI2237
S"            if onsuccess == 'flash':"
p181
sI2238
S'                if next:'
p182
sI2239
S'                    current.session.flash = message_onsuccess'
p183
ssg88
S"(self=<gluon.sqlhtml.SQLFORM object>, **kwargs={'dbio': True, 'request_vars': <Storage {'product_name': '12', 'product_price':...ormkey': '69ac695e-137d-4db5-90fe-2b0e683df6b1'}>, 'session': <Storage {'_formkey[products/create]': ['d7fe0ac...gin]': ['76a3ef0a-c76b-4bd5-8149-d80c7d6e712a']}>})"
p184
sg90
S'validate'
p185
sa(dp186
g67
S'C:\\Users\\robta\\OneDrive\\Documents\\GitHub\\Commodity\\gluon\\sqlhtml.py'
p187
sg69
(dp188
S'field'
p189
S'<pydal.objects.Field object>'
p190
sS'field.uploadfolder'
p191
S'None'
p192
ssg75
I1662
sg76
(dp193
I1664
S"                # self.vars['%s_newfilename' % fieldname] = newfilename"
p194
sI1665
S'                fields[fieldname] = newfilename'
p195
sI1666
S'                if isinstance(field.uploadfield, str):'
p196
sI1657
S'                else:'
p197
sI1658
S'                    # this should never happen, why does it happen?'
p198
sI1659
S"                    # print 'f=', repr(f)"
p199
sI1660
S'                    continue'
p200
sI1661
S'                newfilename = field.store(source_file, original_filename,'
p201
sI1662
S'                                          field.uploadfolder)'
p202
sI1663
S'                # this line was for backward compatibility but problematic'
p203
ssg88
S"(self=<gluon.sqlhtml.SQLFORM object>, request_vars=<Storage {'product_name': '12', 'product_price':...ormkey': '69ac695e-137d-4db5-90fe-2b0e683df6b1'}>, session=<Storage {'_formkey[products/create]': ['d7fe0ac...gin]': ['76a3ef0a-c76b-4bd5-8149-d80c7d6e712a']}>, formname='products/create', keepvalues=False, onvalidation=None, dbio=True, hideerror=False, detect_record_change=False, **kwargs={})"
p204
sg90
S'accepts'
p205
sa(dp206
g67
S'C:\\Users\\robta\\OneDrive\\Documents\\GitHub\\Commodity\\gluon\\packages\\dal\\pydal\\objects.py'
p207
sg69
(dp208
S'builtinopen'
p209
S'<built-in function open>'
p210
sS'dest_file'
p211
g110
sS'pathfilename'
p212
S"r'C:\\Users\\robta\\OneDrive\\Documents\\GitHub\\Commodi...c69656e4c65617468657250616e74735f30312e6a7067.jpg'"
p213
ssg75
I1532
sg76
(dp214
I1536
S'                raise IOError('
p215
sI1527
S'                os.makedirs(path)'
p216
sI1528
S'            pathfilename = pjoin(path, newfilename)'
p217
sI1529
S'            if self.uploadfs:'
p218
sI1530
S"                dest_file = self.uploadfs.open(newfilename, 'wb')"
p219
sI1531
S'            else:'
p220
sI1532
S"                dest_file = open(pathfilename, 'wb')"
p221
sI1533
S'            try:'
p222
sI1534
S'                shutil.copyfileobj(file, dest_file)'
p223
sI1535
S'            except IOError:'
p224
ssg88
S"(self=<pydal.objects.Field object>, file=<open file '<fdopen>', mode 'w+b'>, filename='Tall_Skinny_DaineseRacingD1Jacket_DaineseAlienLeatherPants_01.jpg', path=r'C:\\Users\\robta\\OneDrive\\Documents\\GitHub\\Commodity\\applications\\Commodity\\databases\\..\\uploads')"
p225
sg90
S'store'
p226
sasS'pyver'
p227
S'Python 2.7.9: C:\\Users\\robta\\OneDrive\\Documents\\GitHub\\Commodity\\web2py.exe (prefix: )'
p228
sS'session'
p229
g62
(S'sB\n\x00\x00<div><table><tr><td style="font-weight:bold;vertical-align:top;">auth</td><td style="vertical-align:top;">:</td><td><div><table><tr><td style="font-weight:bold;vertical-align:top;">expiration</td><td style="vertical-align:top;">:</td><td><div>3600</div></td></tr><tr><td style="font-weight:bold;vertical-align:top;">hmac_key</td><td style="vertical-align:top;">:</td><td><div>c286cb5a-504e-4bce-b118-d40275511dae</div></td></tr><tr><td style="font-weight:bold;vertical-align:top;">last_visit</td><td style="vertical-align:top;">:</td><td><div>datetime.datetime(2017, 4, 29, 17, 8, 28, 495000)</div></td></tr><tr><td style="font-weight:bold;vertical-align:top;">remember_me</td><td style="vertical-align:top;">:</td><td><div>False</div></td></tr><tr><td style="font-weight:bold;vertical-align:top;">user</td><td style="vertical-align:top;">:</td><td><div><table><tr><td style="font-weight:bold;vertical-align:top;">email</td><td style="vertical-align:top;">:</td><td><div>robtaylor117@me.com</div></td></tr><tr><td style="font-weight:bold;vertical-align:top;">first_name</td><td style="vertical-align:top;">:</td><td><div>Rob</div></td></tr><tr><td style="font-weight:bold;vertical-align:top;">id</td><td style="vertical-align:top;">:</td><td><div>1L</div></td></tr><tr><td style="font-weight:bold;vertical-align:top;">last_name</td><td style="vertical-align:top;">:</td><td><div>Taylor</div></td></tr><tr><td style="font-weight:bold;vertical-align:top;">profile_image</td><td style="vertical-align:top;">:</td><td><div>auth_user.profile_image.af677bf62f05878a.50726f66696c65205069632e6a7067.jpg</div></td></tr><tr><td style="font-weight:bold;vertical-align:top;">registration_id</td><td style="vertical-align:top;">:</td><td><div></div></td></tr><tr><td style="font-weight:bold;vertical-align:top;">registration_key</td><td style="vertical-align:top;">:</td><td><div></div></td></tr><tr><td style="font-weight:bold;vertical-align:top;">reset_password_key</td><td style="vertical-align:top;">:</td><td><div></div></td></tr><tr><td style="font-weight:bold;vertical-align:top;">reviewer_score</td><td style="vertical-align:top;">:</td><td><div>1L</div></td></tr></table></div></td></tr><tr><td style="font-weight:bold;vertical-align:top;">user_groups</td><td style="vertical-align:top;">:</td><td><div><table><tr><td style="font-weight:bold;vertical-align:top;">1</td><td style="vertical-align:top;">:</td><td><div>user_1</div></td></tr></table></div></td></tr></table></div></td></tr><tr><td style="font-weight:bold;vertical-align:top;">flash</td><td style="vertical-align:top;">:</td><td><div>None</div></td></tr></table></div>'
tRp230
sS'etype'
p231
S"<type 'exceptions.IOError'>"
p232
sS'date'
p233
S'Sat Apr 29 17:12:04 2017'
p234
sS'response'
p235
g62
(S'sI!\x00\x00<div><table><tr><td style="font-weight:bold;vertical-align:top;">body</td><td style="vertical-align:top;">:</td><td><div>&lt;cStringIO.StringO object at 0x0B95BBE0&gt;</div></td></tr><tr><td style="font-weight:bold;vertical-align:top;">cookies</td><td style="vertical-align:top;">:</td><td><div><table><tr><td style="font-weight:bold;vertical-align:top;">session_id_commodity</td><td style="vertical-align:top;">:</td><td><div>127.0.0.1-a3c3437d-0da1-49b8-8a1f-11d5088af117<table><tr><td style="font-weight:bold;vertical-align:top;">comment</td><td style="vertical-align:top;">:</td><td><div></div></td></tr><tr><td style="font-weight:bold;vertical-align:top;">domain</td><td style="vertical-align:top;">:</td><td><div></div></td></tr><tr><td style="font-weight:bold;vertical-align:top;">expires</td><td style="vertical-align:top;">:</td><td><div></div></td></tr><tr><td style="font-weight:bold;vertical-align:top;">httponly</td><td style="vertical-align:top;">:</td><td><div></div></td></tr><tr><td style="font-weight:bold;vertical-align:top;">max-age</td><td style="vertical-align:top;">:</td><td><div></div></td></tr><tr><td style="font-weight:bold;vertical-align:top;">path</td><td style="vertical-align:top;">:</td><td><div>/</div></td></tr><tr><td style="font-weight:bold;vertical-align:top;">secure</td><td style="vertical-align:top;">:</td><td><div></div></td></tr><tr><td style="font-weight:bold;vertical-align:top;">version</td><td style="vertical-align:top;">:</td><td><div></div></td></tr></table></div></td></tr></table></div></td></tr><tr><td style="font-weight:bold;vertical-align:top;">delimiters</td><td style="vertical-align:top;">:</td><td><div><table><tr><td><div>{{</div></td></tr><tr><td><div>}}</div></td></tr></table></div></td></tr><tr><td style="font-weight:bold;vertical-align:top;">files</td><td style="vertical-align:top;">:</td><td><div><table></table></div></td></tr><tr><td style="font-weight:bold;vertical-align:top;">flash</td><td style="vertical-align:top;">:</td><td><div></div></td></tr><tr><td style="font-weight:bold;vertical-align:top;">form_label_separator</td><td style="vertical-align:top;">:</td><td><div></div></td></tr><tr><td style="font-weight:bold;vertical-align:top;">formstyle</td><td style="vertical-align:top;">:</td><td><div>bootstrap3_inline</div></td></tr><tr><td style="font-weight:bold;vertical-align:top;">generic_patterns</td><td style="vertical-align:top;">:</td><td><div><table><tr><td><div>*</div></td></tr></table></div></td></tr><tr><td style="font-weight:bold;vertical-align:top;">google_analytics_id</td><td style="vertical-align:top;">:</td><td><div>None</div></td></tr><tr><td style="font-weight:bold;vertical-align:top;">headers</td><td style="vertical-align:top;">:</td><td><div><table><tr><td style="font-weight:bold;vertical-align:top;">X-Powered-By</td><td style="vertical-align:top;">:</td><td><div>web2py</div></td></tr></table></div></td></tr><tr><td style="font-weight:bold;vertical-align:top;">logo</td><td style="vertical-align:top;">:</td><td><div><a><img href="/Commodity/default/index" src="/Commodity/static/images/Commodity_Logo.png" /></a></div></td></tr><tr><td style="font-weight:bold;vertical-align:top;">menu</td><td style="vertical-align:top;">:</td><td><div><table><tr><td><div><table><tr><td><div>Home</div></td></tr><tr><td><div>False</div></td></tr><tr><td><div>/Commodity/default/index</div></td></tr><tr><td><div><table></table></div></td></tr></table></div></td></tr><tr><td><div><table><tr><td><div>New Product</div></td></tr><tr><td><div>False</div></td></tr><tr><td><div>/Commodity/default/newProduct</div></td></tr><tr><td><div><table></table></div></td></tr></table></div></td></tr><tr><td><div><table><tr><td><div>Add Retailer</div></td></tr><tr><td><div>False</div></td></tr><tr><td><div>/Commodity/default/addRetailer</div></td></tr><tr><td><div><table></table></div></td></tr></table></div></td></tr><tr><td><div><table><tr><td><div>View All Products</div></td></tr><tr><td><div>False</div></td></tr><tr><td><div>/Commodity/default/viewAllProducts</div></td></tr><tr><td><div><table></table></div></td></tr></table></div></td></tr><tr><td><div><table><tr><td><div>Search Products</div></td></tr><tr><td><div>False</div></td></tr><tr><td><div>/Commodity/default/searchProduct</div></td></tr><tr><td><div><table></table></div></td></tr></table></div></td></tr></table></div></td></tr><tr><td style="font-weight:bold;vertical-align:top;">meta</td><td style="vertical-align:top;">:</td><td><div><table><tr><td style="font-weight:bold;vertical-align:top;">author</td><td style="vertical-align:top;">:</td><td><div>Your Name &lt;you@example.com&gt;</div></td></tr><tr><td style="font-weight:bold;vertical-align:top;">description</td><td style="vertical-align:top;">:</td><td><div>a cool new app</div></td></tr><tr><td style="font-weight:bold;vertical-align:top;">generator</td><td style="vertical-align:top;">:</td><td><div>Web2py Web Framework</div></td></tr><tr><td style="font-weight:bold;vertical-align:top;">keywords</td><td style="vertical-align:top;">:</td><td><div><table><tr><td><div>web2py</div></td></tr><tr><td><div>python</div></td></tr><tr><td><div>framework</div></td></tr></table></div></td></tr></table></div></td></tr><tr><td style="font-weight:bold;vertical-align:top;">models_to_run</td><td style="vertical-align:top;">:</td><td><div><table><tr><td><div>^\\w+\\.py$</div></td></tr><tr><td><div>^default/\\w+\\.py$</div></td></tr><tr><td><div>^default/newProduct/\\w+\\.py$</div></td></tr></table></div></td></tr><tr><td style="font-weight:bold;vertical-align:top;">postprocessing</td><td style="vertical-align:top;">:</td><td><div><table></table></div></td></tr><tr><td style="font-weight:bold;vertical-align:top;">session_client</td><td style="vertical-align:top;">:</td><td><div>127.0.0.1</div></td></tr><tr><td style="font-weight:bold;vertical-align:top;">session_cookie_compression_level</td><td style="vertical-align:top;">:</td><td><div>None</div></td></tr><tr><td style="font-weight:bold;vertical-align:top;">session_cookie_expires</td><td style="vertical-align:top;">:</td><td><div>None</div></td></tr><tr><td style="font-weight:bold;vertical-align:top;">session_data_name</td><td style="vertical-align:top;">:</td><td><div>session_data_commodity</div></td></tr><tr><td style="font-weight:bold;vertical-align:top;">session_file</td><td style="vertical-align:top;">:</td><td><div>&lt;open file &#x27;C:\\\\Users\\\\robta\\\\OneDrive\\\\Documents\\\\GitHub\\\\Commodity\\\\applications\\\\Commodity\\\\sessions\\\\179\\\\124\\\\127.0.0.1-a3c3437d-0da1-49b8-8a1f-11d5088af117&#x27;, mode &#x27;rb+&#x27; at 0x0B61B5A0&gt;</div></td></tr><tr><td style="font-weight:bold;vertical-align:top;">session_filename</td><td style="vertical-align:top;">:</td><td><div>C:\\Users\\robta\\OneDrive\\Documents\\GitHub\\Commodity\\applications\\Commodity\\sessions\\127.0.0.1-a3c3437d-0da1-49b8-8a1f-11d5088af117</div></td></tr><tr><td style="font-weight:bold;vertical-align:top;">session_hash</td><td style="vertical-align:top;">:</td><td><div>545ca1a7c7ca72b251a5c20cf1124e2c</div></td></tr><tr><td style="font-weight:bold;vertical-align:top;">session_id</td><td style="vertical-align:top;">:</td><td><div>127.0.0.1-a3c3437d-0da1-49b8-8a1f-11d5088af117</div></td></tr><tr><td style="font-weight:bold;vertical-align:top;">session_id_name</td><td style="vertical-align:top;">:</td><td><div>session_id_commodity</div></td></tr><tr><td style="font-weight:bold;vertical-align:top;">session_locked</td><td style="vertical-align:top;">:</td><td><div>True</div></td></tr><tr><td style="font-weight:bold;vertical-align:top;">session_masterapp</td><td style="vertical-align:top;">:</td><td><div>Commodity</div></td></tr><tr><td style="font-weight:bold;vertical-align:top;">session_new</td><td style="vertical-align:top;">:</td><td><div>False</div></td></tr><tr><td style="font-weight:bold;vertical-align:top;">session_storage_type</td><td style="vertical-align:top;">:</td><td><div>file</div></td></tr><tr><td style="font-weight:bold;vertical-align:top;">status</td><td style="vertical-align:top;">:</td><td><div>200</div></td></tr><tr><td style="font-weight:bold;vertical-align:top;">subtitle</td><td style="vertical-align:top;">:</td><td><div></div></td></tr><tr><td style="font-weight:bold;vertical-align:top;">title</td><td style="vertical-align:top;">:</td><td><div>Commodity</div></td></tr><tr><td style="font-weight:bold;vertical-align:top;">view</td><td style="vertical-align:top;">:</td><td><div>default/newProduct.html</div></td></tr></table></div>'
tRp236
sS'locals'
p237
(dp238
S'extension'
p239
S"'jpg'"
p240
sS'self'
p241
S'<pydal.objects.Field object>'
p242
sS'm'
S'<_sre.SRE_Match object>'
p243
sS'self_uploadfield'
p244
S'True'
p245
sS'encoded_filename'
p246
S"'54616c6c5f536b696e6e795f4461696e657365526163696e...5416c69656e4c65617468657250616e74735f30312e6a7067'"
p247
sg35
S"'Tall_Skinny_DaineseRacingD1Jacket_DaineseAlienLeatherPants_01.jpg'"
p248
sS'newfilename'
p249
S"'products.product_image.aa73fd41ef4eeb76.54616c6c...c69656e4c65617468657250616e74735f30312e6a7067.jpg'"
p250
sg67
S"<open file '<fdopen>', mode 'w+b'>"
p251
sS'path'
p252
S"r'C:\\Users\\robta\\OneDrive\\Documents\\GitHub\\Commodity\\applications\\Commodity\\databases\\..\\uploads'"
p253
sS'uuid_key'
p254
S"'aa73fd41ef4eeb76'"
p255
sS'pathfilename'
p256
S"r'C:\\Users\\robta\\OneDrive\\Documents\\GitHub\\Commodi...c69656e4c65617468657250616e74735f30312e6a7067.jpg'"
p257
sssS'traceback'
p258
S'Traceback (most recent call last):\n  File "C:\\Users\\robta\\OneDrive\\Documents\\GitHub\\Commodity\\gluon\\restricted.py", line 227, in restricted\n    exec ccode in environment\n  File "C:\\Users\\robta\\OneDrive\\Documents\\GitHub\\Commodity\\applications\\Commodity\\controllers/default.py", line 360, in <module>\n  File "C:\\Users\\robta\\OneDrive\\Documents\\GitHub\\Commodity\\gluon\\globals.py", line 417, in <lambda>\n    self._caller = lambda f: f()\n  File "C:\\Users\\robta\\OneDrive\\Documents\\GitHub\\Commodity\\applications\\Commodity\\controllers/default.py", line 106, in newProduct\n    form = SQLFORM(db.products).process()\n  File "C:\\Users\\robta\\OneDrive\\Documents\\GitHub\\Commodity\\gluon\\html.py", line 2298, in process\n    self.validate(**kwargs)\n  File "C:\\Users\\robta\\OneDrive\\Documents\\GitHub\\Commodity\\gluon\\html.py", line 2236, in validate\n    if self.accepts(**kwargs):\n  File "C:\\Users\\robta\\OneDrive\\Documents\\GitHub\\Commodity\\gluon\\sqlhtml.py", line 1662, in accepts\n    field.uploadfolder)\n  File "C:\\Users\\robta\\OneDrive\\Documents\\GitHub\\Commodity\\gluon\\packages\\dal\\pydal\\objects.py", line 1532, in store\n    dest_file = open(pathfilename, \'wb\')\nIOError: [Errno 2] No such file or directory: \'C:\\\\Users\\\\robta\\\\OneDrive\\\\Documents\\\\GitHub\\\\Commodity\\\\applications\\\\Commodity\\\\databases\\\\..\\\\uploads\\\\products.product_image.aa73fd41ef4eeb76.54616c6c5f536b696e6e795f4461696e657365526163696e6744314a61636b65745f4461696e657365416c69656e4c65617468657250616e74735f30312e6a7067.jpg\'\n'
p259
s.