(dp1
S'output'
p2
S"<type 'exceptions.NameError'> name 'productTag1' is not defined"
p3
sS'layer'
p4
S'C:\\Users\\charl\\OneDrive\\Documents\\GitHub\\Commodity\\applications\\Commodity\\views\\default/index.html'
p5
sS'code'
p6
S'response.write(\'<!--[if (gt IE 9)|!(IE)]><!--> <html class="no-js" lang="\', escape=False)\nresponse.write(T.accepted_language or \'en\')\nresponse.write(\'"> <!--<![endif]-->\\r\\n  <head>\\r\\n    <meta charset="utf-8">\\r\\n    <!-- www.phpied.com/conditional-comments-block-downloads/ -->\\r\\n    <!-- Always force latest IE rendering engine\\r\\n         (even in intranet) & Chrome Frame\\r\\n         Remove this if you use the .htaccess -->\\r\\n    <meta http-equiv="X-UA-Compatible" content="IE=edge\', escape=False)\nresponse.write(not request.is_local and \',chrome=1\' or \'\')\nresponse.write(\'">\\r\\n    <!--  Mobile Viewport Fix\\r\\n          j.mp/mobileviewport & davidbcalhoun.com/2010/viewport-metatag\\r\\n          device-width: Occupy full width of the screen in its current orientation\\r\\n          initial-scale = 1.0 retains dimensions instead of zooming out if page height > device height\\r\\n          user-scalable = yes allows the user to zoom in -->\\r\\n    <meta name="viewport" content="width=device-width, initial-scale=1.0">\\r\\n    <title>\', escape=False)\nresponse.write(response.title or request.application)\nresponse.write(\'</title>\\r\\n    <!-- http://dev.w3.org/html5/markup/meta.name.html -->\\r\\n    <meta name="application-name" content="\', escape=False)\nresponse.write(request.application)\nresponse.write(\'">\\r\\n    <!-- Speaking of Google, don\\\'t forget to set your site up:\\r\\n         http://google.com/webmasters -->\\r\\n    <meta name="google-site-verification" content="">\\r\\n    <!-- include stylesheets -->\\r\\n    <link rel="stylesheet" href="\', escape=False)\nresponse.write(URL(\'static\',\'css/bootstrap.min.css\'))\nresponse.write(\'"/>\\r\\n    <link rel="stylesheet" href="\', escape=False)\nresponse.write(URL(\'static\',\'css/web2py-bootstrap3.css\'))\nresponse.write(\'"/>\\r\\n      <link rel="stylesheet" href="\', escape=False)\nresponse.write(URL(\'static\',\'css/custom.css\'))\nresponse.write(\'"/>\\r\\n    <link rel="shortcut icon" href="\', escape=False)\nresponse.write(URL(\'static\',\'images/favicon.ico\'))\nresponse.write(\'" type="image/x-icon">\\r\\n    <link rel="apple-touch-icon" href="\', escape=False)\nresponse.write(URL(\'static\',\'images/favicon.png\'))\nresponse.write(\'">\\r\\n    <!-- All JavaScript at the bottom, except for Modernizr which enables\\r\\n         HTML5 elements & feature detects -->\\r\\n    <script src="\', escape=False)\nresponse.write(URL(\'static\',\'js/modernizr-2.8.3.min.js\'))\nresponse.write(\'"></script>\\r\\n    <!--[if lt IE 9]>\\r\\n        <script src="\', escape=False)\nresponse.write(URL(\'static\',\'js/respond-1.4.2.min.js\'))\nresponse.write(\'"></script>\\r\\n        <![endif]-->\\r\\n    <!-- Favicons -->\\r\\n    \', escape=False)\nresponse.write(\'<script type="text/javascript"><!--\\r\\n    // These variables are used by the web2py_ajax_init function in web2py_ajax.js (which is loaded below).\\r\\n    var w2p_ajax_confirm_message = "\', escape=False)\nresponse.write(T(\'Are you sure you want to delete this object?\'))\nresponse.write(\'";\\r\\n    var w2p_ajax_disable_with_message = "\', escape=False)\nresponse.write(T(\'Working...\'))\nresponse.write(\'";\\r\\n    var w2p_ajax_date_format = "\', escape=False)\nresponse.write(T(\'%Y-%m-%d\'))\nresponse.write(\'";\\r\\n    var w2p_ajax_datetime_format = "\', escape=False)\nresponse.write(T(\'%Y-%m-%d %H:%M:%S\'))\nresponse.write(\'";\\r\\n    var ajax_error_500 = \\\'\', escape=False)\nresponse.write(T.M(\'An error occured, please [[reload %s]] the page\') % URL(args=request.args, vars=request.get_vars))\nresponse.write("\'\\r\\n    //--></script>\\r\\n", escape=False)\nresponse.files.insert(0,URL(\'static\',\'js/jquery.js\'))\nresponse.files.insert(1,URL(\'static\',\'css/calendar.css\'))\nresponse.files.insert(2,URL(\'static\',\'js/calendar.js\'))\nresponse.files.insert(3,URL(\'static\',\'js/web2py.js\'))\nresponse.include_meta()\nresponse.include_files()\nresponse.write(\'\\r\\n\', escape=False)\nresponse.write(\' <!-- this includes jquery.js, calendar.js/.css and web2py.js -->\\r\\n    \', escape=False)\nresponse.write(\'\\r\\n    \', escape=False)\n# using sidebars need to know what sidebar you want to use\nmc0 = \'col-md-12\'\nmc1 = \'col-md-9\'\nmc2 = \'col-md-6\'\nleft_sidebar_enabled = globals().get(\'left_sidebar_enabled\', False)\nright_sidebar_enabled = globals().get(\'right_sidebar_enabled\', False)\nmiddle_column = {0: mc0, 1: mc1, 2: mc2}[\n(left_sidebar_enabled and 1 or 0)+(right_sidebar_enabled and 1 or 0)]\nresponse.write(\'\\r\\n  </head>\\r\\n  <body>\\r\\n    <!--[if lt IE 8]><p class="browserupgrade">You are using an <strong>outdated</strong> browser. Please <a href="http://browsehappy.com/">upgrade your browser</a> to improve your experience.</p><![endif]-->\\r\\n    <div class="w2p_flash alert alert-dismissable">\', escape=False)\nresponse.write(response.flash or \'\')\nresponse.write(\'</div>\\r\\n    <!-- Navbar ======================================= -->\\r\\n    <nav class="navbar navbar-default navbar-fixed-top" role="navigation">\\r\\n      <div class="container-fluid">\\r\\n        <div class="navbar-header">\\r\\n          <button type="button" class="navbar-toggle" data-toggle="collapse" data-target=".navbar-collapse">\\r\\n            <span class="sr-only">Toggle navigation</span>\\r\\n            <span class="icon-bar"></span>\\r\\n            <span class="icon-bar"></span>\\r\\n            <span class="icon-bar"></span>\\r\\n          </button>\\r\\n              <div class="logo">\\r\\n                  \', escape=False)\nresponse.write(response.logo or \'\')\nresponse.write(\'\\r\\n            </div>\\r\\n        </div>\\r\\n        <div class="collapse navbar-collapse navbar-ex1-collapse">\\r\\n          <ul class="nav navbar-nav navbar-right inline">\\r\\n            \', escape=False)\nresponse.write(\'auth\' in globals() and auth.navbar(\'Welcome\',mode=\'dropdown\') or \'\')\nresponse.write(\'\\r\\n          </ul>\\r\\n          \', escape=False)\nif response.menu:\n    response.write(\'\\r\\n          \', escape=False)\n    response.write(MENU(response.menu, _class=\'nav navbar-nav\',li_class=\'dropdown\',ul_class=\'dropdown-menu\'))\n    response.write(\'\\r\\n          \', escape=False)\n    pass\nresponse.write(\'\\r\\n        </div>\\r\\n      </div>\\r\\n        </div>\\r\\n    </nav>\\r\\n    <!-- Masthead ===================================== -->    \\r\\n    \', escape=False)\nresponse.write(\'\\r\\n    <header class=" hdbgcolor">\\r\\n      <div class="jumbotron text-center hdbgcolor">\\r\\n          <img src="../static/images/Commodity_Logo.png" alt="Commodity Logo" class="jumotronlogo">\\r\\n          <div class="row">\\r\\n              <div class="col-xs-6 col-sm-4">\\r\\n                  <div class="thumbnail">\\r\\n                      <img src="\', escape=False)\nresponse.write(URL(\'default\', \'download\', args=product1Image))\nresponse.write(\'"/>\\r\\n                      <div class="caption">\\r\\n                          <h3>\', escape=False)\nresponse.write(product1Name)\nresponse.write(\' <span class="label label-success">NEW</span> </h3>\\r\\n                          <p>Tags: \', escape=False)\nresponse.write(product1Tag1)\nresponse.write(\' \', escape=False)\nresponse.write(product1Tag2)\nresponse.write(\' \', escape=False)\nresponse.write(product1Tag3)\nresponse.write(\'</p>\\r\\n                          <p><a href="\', escape=False)\nresponse.write(product1URL)\nresponse.write(\'" class="btn btn-primary" role="button">View \', escape=False)\nresponse.write(product1Name)\nresponse.write(\'</a></p>\\r\\n                      </div>\\r\\n                  </div>\\r\\n              </div>\\r\\n              <div class="col-xs-6 col-sm-4">\\r\\n                  <div class="thumbnail">\\r\\n                      <img src="\', escape=False)\nresponse.write(URL(\'default\', \'download\', args=product2Image))\nresponse.write(\'"/>\\r\\n                      <div class="caption">\\r\\n                          <h3>\', escape=False)\nresponse.write(product2Name)\nresponse.write(\' <span class="label label-success">NEW</span> </h3>\\r\\n                          <p>Tags: \', escape=False)\nresponse.write(product2Tag1)\nresponse.write(\' \', escape=False)\nresponse.write(product2Tag2)\nresponse.write(\' \', escape=False)\nresponse.write(product2Tag3)\nresponse.write(\'</p>\\r\\n                          <p><a href="\', escape=False)\nresponse.write(product2URL)\nresponse.write(\'" class="btn btn-primary" role="button">View \', escape=False)\nresponse.write(product2Name)\nresponse.write(\'</a></p>\\r\\n                      </div>\\r\\n                  </div>\\r\\n              </div>\\r\\n              <div class="col-xs-6 col-sm-4">\\r\\n                  <div class="thumbnail">\\r\\n                      <img src="\', escape=False)\nresponse.write(URL(\'default\', \'download\', args=product3Image))\nresponse.write(\'"/>\\r\\n                      <div class="caption">\\r\\n                          <h3>\', escape=False)\nresponse.write(product3Name)\nresponse.write(\' <span class="label label-success">NEW</span> </h3>\\r\\n                          <p>Tags: \', escape=False)\nresponse.write(productTag1[0])\nresponse.write(\' \', escape=False)\nresponse.write(productTag2[0])\nresponse.write(\' \', escape=False)\nresponse.write(productTag3[0])\nresponse.write(\'</p>\\r\\n                      </div>\\r\\n                  </div>\\r\\n              </div>\\r\\n              </div>\\r\\n        </div>\\r\\n      </div>\\r\\n    </header>\\r\\n\', escape=False)\nresponse.write(\'\\r\\n    <!-- Main ========================================= -->\\r\\n    <!-- Begin page content -->\\r\\n    <div class="container-fluid main-container">\\r\\n      \', escape=False)\nif left_sidebar_enabled:\n    response.write(\'\\r\\n        <div class="col-md-3 left-sidebar">\\r\\n            \', escape=False)\n    response.write(\'\\r\\n            <h3>Left Sidebar</h3>\\r\\n            <p></p>\\r\\n            \', escape=False)\n    response.write(\'\\r\\n        </div>\\r\\n      \', escape=False)\n    pass\nresponse.write(\'\\r\\n\\r\\n      <div class="\', escape=False)\nresponse.write(middle_column)\nresponse.write(\'">\\r\\n        \', escape=False)\nresponse.write(\'\\r\\n        \', escape=False)\nresponse.write(\'\\r\\n\\r\\n\', escape=False)\nresponse.write(\'\\r\\n\\r\\n\\r\\n<div class="panel panel-success">\\r\\n    <div class="panel-heading">\\r\\n        <h1 class="center helpfulText">Welcome to Commodity - The Product Review Platform.</h1>\\r\\n    </div>\\r\\n    <div class="panel-body">\\r\\n        <div class="jumbotron center">\\r\\n            <h3 class="text-top">Latest Reviews:</h3>\\r\\n            \', escape=False)\nu = 0\nresponse.write(\'\\r\\n            \', escape=False)\nfor item in productIDURL:\n    response.write(\'\\r\\n            <div class="panel panel-success">\\r\\n                <div class="panel-heading">\\r\\n                    <h4>\', escape=False)\n    response.write(reviewName[u])\n    response.write(\'</h4>\\r\\n                </div>\\r\\n                <div class="panel-body">\\r\\n                    <p><section class="reviewText">Date:</section> \', escape=False)\n    response.write(reviewTimeStamp[u])\n    response.write(\'</p>\\r\\n                    <br>\\r\\n                    <p><section class="reviewText">Author:</section> \', escape=False)\n    response.write(reviewerName[u])\n    response.write(\'</p>\\r\\n                    <p><section class="reviewText">Comments:</section> \', escape=False)\n    response.write(reviewContent[u])\n    response.write(\':</p>\\r\\n                    <p><section class="reviewText">Rating:</section> \', escape=False)\n    response.write(reviewRating[u])\n    response.write(\'</p>\\r\\n                    <p><a href="\', escape=False)\n    response.write(productIDURL[u])\n    response.write(\'" class="btn btn-primary" role="button">View Product</a></p>\\r\\n                </div>\\r\\n            </div>\\r\\n            \', escape=False)\n    u = u + 1\n    response.write(\'\\r\\n            \', escape=False)\n    pass\nresponse.write(\'\\r\\n        </div>\\r\\n    </div>\\r\\n</div>\\r\\n\\r\\n\', escape=False)\nresponse.write(\'\\r\\n\', escape=False)\nresponse.write(\'\\r\\n        \', escape=False)\nresponse.write(\'\\r\\n      </div>\\r\\n\\r\\n      \', escape=False)\nif right_sidebar_enabled:\n    response.write(\'\\r\\n        <div class="col-md-3">\\r\\n            \', escape=False)\n    response.write(\'\\r\\n<div class="panel panel-info">\\r\\n  <div class="panel-heading"><h3 class="panel-title"><a class="btn-block"\\r\\n      href="\', escape=False)\n    response.write(URL(\'admin\',\'default\',\'index\'))\n    response.write(\'">\\r\\n      <i class="glyphicon glyphicon-cog"></i>\\r\\n      \', escape=False)\n    response.write(T("admin"))\n    response.write(\'\\r\\n    </a></h3></div>\\r\\n  <div class="panel-body">\\r\\n    \', escape=False)\n    response.write(T("Don\'t know what to do?"))\n    response.write(\'\\r\\n  </div>\\r\\n  <ul class="list-group">\\r\\n    <li class="list-group-item">\', escape=False)\n    response.write(A(T("Online examples"), _href=URL(\'examples\',\'default\',\'index\')))\n    response.write(\'</li>\\r\\n    <li class="list-group-item"><a href="http://web2py.com">web2py.com</a></li>\\r\\n    <li class="list-group-item"><a href="http://web2py.com/book">\', escape=False)\n    response.write(T(\'Documentation\'))\n    response.write(\'</a></li>\\r\\n  </ul>\\r\\n</div>\\r\\n\', escape=False)\n    response.write(\'\\r\\n        </div>\\r\\n      \', escape=False)\n    pass\nresponse.write(\'\\r\\n\\r\\n    </div>\\r\\n\\r\\n    <!-- The javascript =============================== -->\\r\\n    <script src="\', escape=False)\nresponse.write(URL(\'static\',\'js/bootstrap.min.js\'))\nresponse.write(\'"></script>\\r\\n    <script src="\', escape=False)\nresponse.write(URL(\'static\',\'js/web2py-bootstrap3.js\'))\nresponse.write(\'"></script>\\r\\n    \', escape=False)\nresponse.write(\'\\r\\n    \', escape=False)\nif response.google_analytics_id:\n    response.write(\'\\r\\n    <!-- Analytics ==================================== -->\\r\\n    <script src="\', escape=False)\n    response.write(URL(\'static\',\'js/analytics.min.js\'))\n    response.write(\'"></script>\\r\\n    <script type="text/javascript">\\r\\n      analytics.initialize({\\r\\n      \\\'Google Analytics\\\':{trackingId:\\\'\', escape=False)\n    response.write(response.google_analytics_id)\n    response.write("\'}\\r\\n      });\\r\\n    </script>\\r\\n    ", escape=False)\n    pass\nresponse.write(\'\\r\\n  </body>\\r\\n</html>\\r\\n\', escape=False)'
p7
sS'snapshot'
p8
(dp9
S'exception'
p10
(dp11
S'__hash__'
p12
S"<method-wrapper '__hash__' of exceptions.NameError object>"
p13
sS'__setattr__'
p14
S"<method-wrapper '__setattr__' of exceptions.NameError object>"
p15
sS'__reduce_ex__'
p16
S'<built-in method __reduce_ex__ of exceptions.NameError object>'
p17
sS'__getslice__'
p18
S"<method-wrapper '__getslice__' of exceptions.NameError object>"
p19
sS'__getitem__'
p20
S"<method-wrapper '__getitem__' of exceptions.NameError object>"
p21
sS'__setstate__'
p22
S'<built-in method __setstate__ of exceptions.NameError object>'
p23
sS'__reduce__'
p24
S'<built-in method __reduce__ of exceptions.NameError object>'
p25
sS'__str__'
p26
S"<method-wrapper '__str__' of exceptions.NameError object>"
p27
sS'__format__'
p28
S'<built-in method __format__ of exceptions.NameError object>'
p29
sS'__getattribute__'
p30
S"<method-wrapper '__getattribute__' of exceptions.NameError object>"
p31
sS'__class__'
p32
S"<type 'exceptions.NameError'>"
p33
sS'__unicode__'
p34
S'<built-in method __unicode__ of exceptions.NameError object>'
p35
sS'__delattr__'
p36
S"<method-wrapper '__delattr__' of exceptions.NameError object>"
p37
sS'__subclasshook__'
p38
S'<built-in method __subclasshook__ of type object>'
p39
sS'__repr__'
p40
S"<method-wrapper '__repr__' of exceptions.NameError object>"
p41
sS'args'
p42
S'("name \'productTag1\' is not defined",)'
p43
sS'__dict__'
p44
S'{}'
p45
sS'__sizeof__'
p46
S'<built-in method __sizeof__ of exceptions.NameError object>'
p47
sS'__doc__'
p48
S"'Name not found globally.'"
p49
sS'__init__'
p50
S"<method-wrapper '__init__' of exceptions.NameError object>"
p51
sS'__new__'
p52
S'<built-in method __new__ of type object>'
p53
ssS'evalue'
p54
S"name 'productTag1' is not defined"
p55
sS'request'
p56
cgluon.html
XML_unpickle
p57
(S's\x85Y\x00\x00<div><table><tr><td style="font-weight:bold;vertical-align:top;">ajax</td><td style="vertical-align:top;">:</td><td><div>False</div></td></tr><tr><td style="font-weight:bold;vertical-align:top;">application</td><td style="vertical-align:top;">:</td><td><div>Commodity</div></td></tr><tr><td style="font-weight:bold;vertical-align:top;">args</td><td style="vertical-align:top;">:</td><td><div><table></table></div></td></tr><tr><td style="font-weight:bold;vertical-align:top;">cid</td><td style="vertical-align:top;">:</td><td><div>None</div></td></tr><tr><td style="font-weight:bold;vertical-align:top;">client</td><td style="vertical-align:top;">:</td><td><div>127.0.0.1</div></td></tr><tr><td style="font-weight:bold;vertical-align:top;">controller</td><td style="vertical-align:top;">:</td><td><div>default</div></td></tr><tr><td style="font-weight:bold;vertical-align:top;">cookies</td><td style="vertical-align:top;">:</td><td><div><table><tr><td style="font-weight:bold;vertical-align:top;">session_id_admin</td><td style="vertical-align:top;">:</td><td><div>127.0.0.1-8125669a-e098-4cec-9fa6-45455aa8174c<table><tr><td style="font-weight:bold;vertical-align:top;">comment</td><td style="vertical-align:top;">:</td><td><div></div></td></tr><tr><td style="font-weight:bold;vertical-align:top;">domain</td><td style="vertical-align:top;">:</td><td><div></div></td></tr><tr><td style="font-weight:bold;vertical-align:top;">expires</td><td style="vertical-align:top;">:</td><td><div></div></td></tr><tr><td style="font-weight:bold;vertical-align:top;">httponly</td><td style="vertical-align:top;">:</td><td><div></div></td></tr><tr><td style="font-weight:bold;vertical-align:top;">max-age</td><td style="vertical-align:top;">:</td><td><div></div></td></tr><tr><td style="font-weight:bold;vertical-align:top;">path</td><td style="vertical-align:top;">:</td><td><div></div></td></tr><tr><td style="font-weight:bold;vertical-align:top;">secure</td><td style="vertical-align:top;">:</td><td><div></div></td></tr><tr><td style="font-weight:bold;vertical-align:top;">version</td><td style="vertical-align:top;">:</td><td><div></div></td></tr></table></div></td></tr><tr><td style="font-weight:bold;vertical-align:top;">session_id_commodity</td><td style="vertical-align:top;">:</td><td><div>127.0.0.1-f0975ea8-e207-49e9-a72c-b47824b2a3cc<table><tr><td style="font-weight:bold;vertical-align:top;">comment</td><td style="vertical-align:top;">:</td><td><div></div></td></tr><tr><td style="font-weight:bold;vertical-align:top;">domain</td><td style="vertical-align:top;">:</td><td><div></div></td></tr><tr><td style="font-weight:bold;vertical-align:top;">expires</td><td style="vertical-align:top;">:</td><td><div></div></td></tr><tr><td style="font-weight:bold;vertical-align:top;">httponly</td><td style="vertical-align:top;">:</td><td><div></div></td></tr><tr><td style="font-weight:bold;vertical-align:top;">max-age</td><td style="vertical-align:top;">:</td><td><div></div></td></tr><tr><td style="font-weight:bold;vertical-align:top;">path</td><td style="vertical-align:top;">:</td><td><div></div></td></tr><tr><td style="font-weight:bold;vertical-align:top;">secure</td><td style="vertical-align:top;">:</td><td><div></div></td></tr><tr><td style="font-weight:bold;vertical-align:top;">version</td><td style="vertical-align:top;">:</td><td><div></div></td></tr></table></div></td></tr></table></div></td></tr><tr><td style="font-weight:bold;vertical-align:top;">env</td><td style="vertical-align:top;">:</td><td><div><table><tr><td style="font-weight:bold;vertical-align:top;">HTTP_ACCEPT</td><td style="vertical-align:top;">:</td><td><div>text/html,application/xhtml+xml,application/xml;q=0.9,image/webp,*/*;q=0.8</div></td></tr><tr><td style="font-weight:bold;vertical-align:top;">HTTP_ACCEPT_ENCODING</td><td style="vertical-align:top;">:</td><td><div>gzip, deflate, sdch, br</div></td></tr><tr><td style="font-weight:bold;vertical-align:top;">HTTP_ACCEPT_LANGUAGE</td><td style="vertical-align:top;">:</td><td><div>en-US,en;q=0.8</div></td></tr><tr><td style="font-weight:bold;vertical-align:top;">HTTP_CACHE_CONTROL</td><td style="vertical-align:top;">:</td><td><div>max-age=0</div></td></tr><tr><td style="font-weight:bold;vertical-align:top;">HTTP_CONNECTION</td><td style="vertical-align:top;">:</td><td><div>keep-alive</div></td></tr><tr><td style="font-weight:bold;vertical-align:top;">HTTP_COOKIE</td><td style="vertical-align:top;">:</td><td><div>session_id_commodity=127.0.0.1-f0975ea8-e207-49e9-a72c-b47824b2a3cc; session_id_admin=127.0.0.1-8125669a-e098-4cec-9fa6-45455aa8174c</div></td></tr><tr><td style="font-weight:bold;vertical-align:top;">HTTP_HOST</td><td style="vertical-align:top;">:</td><td><div>127.0.0.1:8000</div></td></tr><tr><td style="font-weight:bold;vertical-align:top;">HTTP_REFERER</td><td style="vertical-align:top;">:</td><td><div>http://127.0.0.1:8000/Commodity/default/searchProduct</div></td></tr><tr><td style="font-weight:bold;vertical-align:top;">HTTP_UPGRADE_INSECURE_REQUESTS</td><td style="vertical-align:top;">:</td><td><div>1</div></td></tr><tr><td style="font-weight:bold;vertical-align:top;">HTTP_USER_AGENT</td><td style="vertical-align:top;">:</td><td><div>Mozilla/5.0 (Windows NT 10.0; Win64; x64) AppleWebKit/537.36 (KHTML, like Gecko) Chrome/58.0.3029.81 Safari/537.36</div></td></tr><tr><td style="font-weight:bold;vertical-align:top;">PATH_INFO</td><td style="vertical-align:top;">:</td><td><div>/Commodity/default/index</div></td></tr><tr><td style="font-weight:bold;vertical-align:top;">QUERY_STRING</td><td style="vertical-align:top;">:</td><td><div></div></td></tr><tr><td style="font-weight:bold;vertical-align:top;">REMOTE_ADDR</td><td style="vertical-align:top;">:</td><td><div>127.0.0.1</div></td></tr><tr><td style="font-weight:bold;vertical-align:top;">REMOTE_PORT</td><td style="vertical-align:top;">:</td><td><div>57175</div></td></tr><tr><td style="font-weight:bold;vertical-align:top;">REQUEST_METHOD</td><td style="vertical-align:top;">:</td><td><div>GET</div></td></tr><tr><td style="font-weight:bold;vertical-align:top;">SCRIPT_NAME</td><td style="vertical-align:top;">:</td><td><div></div></td></tr><tr><td style="font-weight:bold;vertical-align:top;">SERVER_NAME</td><td style="vertical-align:top;">:</td><td><div>DESKTOP-2AGAA5H</div></td></tr><tr><td style="font-weight:bold;vertical-align:top;">SERVER_PORT</td><td style="vertical-align:top;">:</td><td><div>8000</div></td></tr><tr><td style="font-weight:bold;vertical-align:top;">SERVER_PROTOCOL</td><td style="vertical-align:top;">:</td><td><div>HTTP/1.1</div></td></tr><tr><td style="font-weight:bold;vertical-align:top;">SERVER_SOFTWARE</td><td style="vertical-align:top;">:</td><td><div>Rocket 1.2.6</div></td></tr><tr><td style="font-weight:bold;vertical-align:top;">app_folders</td><td style="vertical-align:top;">:</td><td><div>set([&#x27;C:\\\\Users\\\\charl\\\\OneDrive\\\\Documents\\\\GitHub\\\\Commodity\\\\applications\\\\welcome\\\\&#x27;, &#x27;C:\\\\Users\\\\charl\\\\OneDrive\\\\Documents\\\\GitHub\\\\Commodity\\\\applications\\\\Commodity\\\\&#x27;, &#x27;C:\\\\Users\\\\charl\\\\OneDrive\\\\Documents\\\\GitHub\\\\Commodity\\\\applications\\\\admin\\\\&#x27;])</div></td></tr><tr><td style="font-weight:bold;vertical-align:top;">applications_parent</td><td style="vertical-align:top;">:</td><td><div>C:\\Users\\charl\\OneDrive\\Documents\\GitHub\\Commodity</div></td></tr><tr><td style="font-weight:bold;vertical-align:top;">cmd_args</td><td style="vertical-align:top;">:</td><td><div><table></table></div></td></tr><tr><td style="font-weight:bold;vertical-align:top;">cmd_options</td><td style="vertical-align:top;">:</td><td><div>&lt;Values at 0x2f63da0: {&#x27;verbose&#x27;: False, &#x27;ip&#x27;: &#x27;127.0.0.1&#x27;, &#x27;debuglevel&#x27;: 30, &#x27;with_scheduler&#x27;: False, &#x27;shutdown_timeout&#x27;: 5, &#x27;taskbar&#x27;: False, &#x27;with_coverage&#x27;: False, &#x27;pid_filename&#x27;: &#x27;httpserver.pid&#x27;, &#x27;maxthreads&#x27;: None, &#x27;softcron&#x27;: False, &#x27;server_name&#x27;: &#x27;DESKTOP-2AGAA5H&#x27;, &#x27;bpython&#x27;: False, &#x27;nogui&#x27;: False, &#x27;port&#x27;: 8000, &#x27;print_errors&#x27;: False, &#x27;extcron&#x27;: False, &#x27;runcron&#x27;: False, &#x27;run_system_tests&#x27;: False, &#x27;test&#x27;: None, &#x27;folder&#x27;: &#x27;C:\\\\Users\\\\charl\\\\OneDrive\\\\Documents\\\\GitHub\\\\Commodity&#x27;, &#x27;config&#x27;: &#x27;&#x27;, &#x27;minthreads&#x27;: None, &#x27;shell&#x27;: None, &#x27;run&#x27;: &#x27;&#x27;, &#x27;log_filename&#x27;: &#x27;httpserver.log&#x27;, &#x27;profiler_dir&#x27;: None, &#x27;args&#x27;: [&#x27;&#x27;], &#x27;socket_timeout&#x27;: 5, &#x27;ssl_ca_certificate&#x27;: None, &#x27;scheduler&#x27;: None, &#x27;interfaces&#x27;: None, &#x27;ssl_private_key&#x27;: &#x27;&#x27;, &#x27;gae&#x27;: None, &#x27;password&#x27;: &#x27;******&#x27;, &#x27;request_queue_size&#x27;: 5, &#x27;ssl_certificate&#x27;: &#x27;&#x27;, &#x27;cronjob&#x27;: False, &#x27;numthreads&#x27;: None, &#x27;quiet&#x27;: False, &#x27;import_models&#x27;: False, &#x27;timeout&#x27;: 10, &#x27;plain&#x27;: False, &#x27;nobanner&#x27;: False}&gt;</div></td></tr><tr><td style="font-weight:bold;vertical-align:top;">db_sessions</td><td style="vertical-align:top;">:</td><td><div>set([])</div></td></tr><tr><td style="font-weight:bold;vertical-align:top;">debugging</td><td style="vertical-align:top;">:</td><td><div>True</div></td></tr><tr><td style="font-weight:bold;vertical-align:top;">gluon_parent</td><td style="vertical-align:top;">:</td><td><div>C:\\Users\\charl\\OneDrive\\Documents\\GitHub\\Commodity</div></td></tr><tr><td style="font-weight:bold;vertical-align:top;">http_accept</td><td style="vertical-align:top;">:</td><td><div>text/html,application/xhtml+xml,application/xml;q=0.9,image/webp,*/*;q=0.8</div></td></tr><tr><td style="font-weight:bold;vertical-align:top;">http_accept_encoding</td><td style="vertical-align:top;">:</td><td><div>gzip, deflate, sdch, br</div></td></tr><tr><td style="font-weight:bold;vertical-align:top;">http_accept_language</td><td style="vertical-align:top;">:</td><td><div>en-US,en;q=0.8</div></td></tr><tr><td style="font-weight:bold;vertical-align:top;">http_cache_control</td><td style="vertical-align:top;">:</td><td><div>max-age=0</div></td></tr><tr><td style="font-weight:bold;vertical-align:top;">http_connection</td><td style="vertical-align:top;">:</td><td><div>keep-alive</div></td></tr><tr><td style="font-weight:bold;vertical-align:top;">http_cookie</td><td style="vertical-align:top;">:</td><td><div>session_id_commodity=127.0.0.1-f0975ea8-e207-49e9-a72c-b47824b2a3cc; session_id_admin=127.0.0.1-8125669a-e098-4cec-9fa6-45455aa8174c</div></td></tr><tr><td style="font-weight:bold;vertical-align:top;">http_host</td><td style="vertical-align:top;">:</td><td><div>127.0.0.1:8000</div></td></tr><tr><td style="font-weight:bold;vertical-align:top;">http_referer</td><td style="vertical-align:top;">:</td><td><div>http://127.0.0.1:8000/Commodity/default/searchProduct</div></td></tr><tr><td style="font-weight:bold;vertical-align:top;">http_upgrade_insecure_requests</td><td style="vertical-align:top;">:</td><td><div>1</div></td></tr><tr><td style="font-weight:bold;vertical-align:top;">http_user_agent</td><td style="vertical-align:top;">:</td><td><div>Mozilla/5.0 (Windows NT 10.0; Win64; x64) AppleWebKit/537.36 (KHTML, like Gecko) Chrome/58.0.3029.81 Safari/537.36</div></td></tr><tr><td style="font-weight:bold;vertical-align:top;">is_jython</td><td style="vertical-align:top;">:</td><td><div>False</div></td></tr><tr><td style="font-weight:bold;vertical-align:top;">is_pypy</td><td style="vertical-align:top;">:</td><td><div>False</div></td></tr><tr><td style="font-weight:bold;vertical-align:top;">is_source</td><td style="vertical-align:top;">:</td><td><div>False</div></td></tr><tr><td style="font-weight:bold;vertical-align:top;">local_hosts</td><td style="vertical-align:top;">:</td><td><div><table><tr><td><div>DESKTOP-2AGAA5H</div></td></tr><tr><td><div>::ffff:127.0.0.1</div></td></tr><tr><td><div>::1</div></td></tr><tr><td><div>192.168.0.15</div></td></tr><tr><td><div>fe80::416:8ca2:3a96:6ce2%10</div></td></tr><tr><td><div>127.0.0.1</div></td></tr></table></div></td></tr><tr><td style="font-weight:bold;vertical-align:top;">path_info</td><td style="vertical-align:top;">:</td><td><div>/Commodity/default/index</div></td></tr><tr><td style="font-weight:bold;vertical-align:top;">query_string</td><td style="vertical-align:top;">:</td><td><div></div></td></tr><tr><td style="font-weight:bold;vertical-align:top;">remote_addr</td><td style="vertical-align:top;">:</td><td><div>127.0.0.1</div></td></tr><tr><td style="font-weight:bold;vertical-align:top;">remote_port</td><td style="vertical-align:top;">:</td><td><div>57175</div></td></tr><tr><td style="font-weight:bold;vertical-align:top;">request_method</td><td style="vertical-align:top;">:</td><td><div>GET</div></td></tr><tr><td style="font-weight:bold;vertical-align:top;">request_uri</td><td style="vertical-align:top;">:</td><td><div>/Commodity/default/index</div></td></tr><tr><td style="font-weight:bold;vertical-align:top;">script_name</td><td style="vertical-align:top;">:</td><td><div></div></td></tr><tr><td style="font-weight:bold;vertical-align:top;">server_name</td><td style="vertical-align:top;">:</td><td><div>DESKTOP-2AGAA5H</div></td></tr><tr><td style="font-weight:bold;vertical-align:top;">server_port</td><td style="vertical-align:top;">:</td><td><div>8000</div></td></tr><tr><td style="font-weight:bold;vertical-align:top;">server_protocol</td><td style="vertical-align:top;">:</td><td><div>HTTP/1.1</div></td></tr><tr><td style="font-weight:bold;vertical-align:top;">server_software</td><td style="vertical-align:top;">:</td><td><div>Rocket 1.2.6</div></td></tr><tr><td style="font-weight:bold;vertical-align:top;">web2py_path</td><td style="vertical-align:top;">:</td><td><div>C:\\Users\\charl\\OneDrive\\Documents\\GitHub\\Commodity</div></td></tr><tr><td style="font-weight:bold;vertical-align:top;">web2py_version</td><td style="vertical-align:top;">:</td><td><div>2.14.6-stable+timestamp.2016.05.10.00.21.47</div></td></tr><tr><td style="font-weight:bold;vertical-align:top;">wsgi.errors</td><td style="vertical-align:top;">:</td><td><div>&lt;open file &#x27;&lt;stderr&gt;&#x27;, mode &#x27;w&#x27; at 0x0224D0D0&gt;</div></td></tr><tr><td style="font-weight:bold;vertical-align:top;">wsgi.file_wrapper</td><td style="vertical-align:top;">:</td><td><div>&lt;class wsgiref.util.FileWrapper at 0x0265A030&gt;</div></td></tr><tr><td style="font-weight:bold;vertical-align:top;">wsgi.input</td><td style="vertical-align:top;">:</td><td><div>&lt;socket._fileobject object at 0x0470FFB0&gt;</div></td></tr><tr><td style="font-weight:bold;vertical-align:top;">wsgi.multiprocess</td><td style="vertical-align:top;">:</td><td><div>False</div></td></tr><tr><td style="font-weight:bold;vertical-align:top;">wsgi.multithread</td><td style="vertical-align:top;">:</td><td><div>True</div></td></tr><tr><td style="font-weight:bold;vertical-align:top;">wsgi.run_once</td><td style="vertical-align:top;">:</td><td><div>False</div></td></tr><tr><td style="font-weight:bold;vertical-align:top;">wsgi.url_scheme</td><td style="vertical-align:top;">:</td><td><div>http</div></td></tr><tr><td style="font-weight:bold;vertical-align:top;">wsgi.version</td><td style="vertical-align:top;">:</td><td><div><table><tr><td><div>1</div></td></tr><tr><td><div>0</div></td></tr></table></div></td></tr><tr><td style="font-weight:bold;vertical-align:top;">wsgi_errors</td><td style="vertical-align:top;">:</td><td><div>&lt;open file &#x27;&lt;stderr&gt;&#x27;, mode &#x27;w&#x27; at 0x0224D0D0&gt;</div></td></tr><tr><td style="font-weight:bold;vertical-align:top;">wsgi_file_wrapper</td><td style="vertical-align:top;">:</td><td><div>&lt;class wsgiref.util.FileWrapper at 0x0265A030&gt;</div></td></tr><tr><td style="font-weight:bold;vertical-align:top;">wsgi_input</td><td style="vertical-align:top;">:</td><td><div>&lt;socket._fileobject object at 0x0470FFB0&gt;</div></td></tr><tr><td style="font-weight:bold;vertical-align:top;">wsgi_multiprocess</td><td style="vertical-align:top;">:</td><td><div>False</div></td></tr><tr><td style="font-weight:bold;vertical-align:top;">wsgi_multithread</td><td style="vertical-align:top;">:</td><td><div>True</div></td></tr><tr><td style="font-weight:bold;vertical-align:top;">wsgi_run_once</td><td style="vertical-align:top;">:</td><td><div>False</div></td></tr><tr><td style="font-weight:bold;vertical-align:top;">wsgi_url_scheme</td><td style="vertical-align:top;">:</td><td><div>http</div></td></tr><tr><td style="font-weight:bold;vertical-align:top;">wsgi_version</td><td style="vertical-align:top;">:</td><td><div><table><tr><td><div>1</div></td></tr><tr><td><div>0</div></td></tr></table></div></td></tr></table></div></td></tr><tr><td style="font-weight:bold;vertical-align:top;">extension</td><td style="vertical-align:top;">:</td><td><div>html</div></td></tr><tr><td style="font-weight:bold;vertical-align:top;">folder</td><td style="vertical-align:top;">:</td><td><div>C:\\Users\\charl\\OneDrive\\Documents\\GitHub\\Commodity\\applications\\Commodity\\</div></td></tr><tr><td style="font-weight:bold;vertical-align:top;">function</td><td style="vertical-align:top;">:</td><td><div>index</div></td></tr><tr><td style="font-weight:bold;vertical-align:top;">global_settings</td><td style="vertical-align:top;">:</td><td><div><table><tr><td style="font-weight:bold;vertical-align:top;">app_folders</td><td style="vertical-align:top;">:</td><td><div>set([&#x27;C:\\\\Users\\\\charl\\\\OneDrive\\\\Documents\\\\GitHub\\\\Commodity\\\\applications\\\\welcome\\\\&#x27;, &#x27;C:\\\\Users\\\\charl\\\\OneDrive\\\\Documents\\\\GitHub\\\\Commodity\\\\applications\\\\Commodity\\\\&#x27;, &#x27;C:\\\\Users\\\\charl\\\\OneDrive\\\\Documents\\\\GitHub\\\\Commodity\\\\applications\\\\admin\\\\&#x27;])</div></td></tr><tr><td style="font-weight:bold;vertical-align:top;">applications_parent</td><td style="vertical-align:top;">:</td><td><div>C:\\Users\\charl\\OneDrive\\Documents\\GitHub\\Commodity</div></td></tr><tr><td style="font-weight:bold;vertical-align:top;">cmd_args</td><td style="vertical-align:top;">:</td><td><div><table></table></div></td></tr><tr><td style="font-weight:bold;vertical-align:top;">cmd_options</td><td style="vertical-align:top;">:</td><td><div>&lt;Values at 0x2f63da0: {&#x27;verbose&#x27;: False, &#x27;ip&#x27;: &#x27;127.0.0.1&#x27;, &#x27;debuglevel&#x27;: 30, &#x27;with_scheduler&#x27;: False, &#x27;shutdown_timeout&#x27;: 5, &#x27;taskbar&#x27;: False, &#x27;with_coverage&#x27;: False, &#x27;pid_filename&#x27;: &#x27;httpserver.pid&#x27;, &#x27;maxthreads&#x27;: None, &#x27;softcron&#x27;: False, &#x27;server_name&#x27;: &#x27;DESKTOP-2AGAA5H&#x27;, &#x27;bpython&#x27;: False, &#x27;nogui&#x27;: False, &#x27;port&#x27;: 8000, &#x27;print_errors&#x27;: False, &#x27;extcron&#x27;: False, &#x27;runcron&#x27;: False, &#x27;run_system_tests&#x27;: False, &#x27;test&#x27;: None, &#x27;folder&#x27;: &#x27;C:\\\\Users\\\\charl\\\\OneDrive\\\\Documents\\\\GitHub\\\\Commodity&#x27;, &#x27;config&#x27;: &#x27;&#x27;, &#x27;minthreads&#x27;: None, &#x27;shell&#x27;: None, &#x27;run&#x27;: &#x27;&#x27;, &#x27;log_filename&#x27;: &#x27;httpserver.log&#x27;, &#x27;profiler_dir&#x27;: None, &#x27;args&#x27;: [&#x27;&#x27;], &#x27;socket_timeout&#x27;: 5, &#x27;ssl_ca_certificate&#x27;: None, &#x27;scheduler&#x27;: None, &#x27;interfaces&#x27;: None, &#x27;ssl_private_key&#x27;: &#x27;&#x27;, &#x27;gae&#x27;: None, &#x27;password&#x27;: &#x27;******&#x27;, &#x27;request_queue_size&#x27;: 5, &#x27;ssl_certificate&#x27;: &#x27;&#x27;, &#x27;cronjob&#x27;: False, &#x27;numthreads&#x27;: None, &#x27;quiet&#x27;: False, &#x27;import_models&#x27;: False, &#x27;timeout&#x27;: 10, &#x27;plain&#x27;: False, &#x27;nobanner&#x27;: False}&gt;</div></td></tr><tr><td style="font-weight:bold;vertical-align:top;">db_sessions</td><td style="vertical-align:top;">:</td><td><div>set([])</div></td></tr><tr><td style="font-weight:bold;vertical-align:top;">debugging</td><td style="vertical-align:top;">:</td><td><div>True</div></td></tr><tr><td style="font-weight:bold;vertical-align:top;">gluon_parent</td><td style="vertical-align:top;">:</td><td><div>C:\\Users\\charl\\OneDrive\\Documents\\GitHub\\Commodity</div></td></tr><tr><td style="font-weight:bold;vertical-align:top;">is_jython</td><td style="vertical-align:top;">:</td><td><div>False</div></td></tr><tr><td style="font-weight:bold;vertical-align:top;">is_pypy</td><td style="vertical-align:top;">:</td><td><div>False</div></td></tr><tr><td style="font-weight:bold;vertical-align:top;">is_source</td><td style="vertical-align:top;">:</td><td><div>False</div></td></tr><tr><td style="font-weight:bold;vertical-align:top;">local_hosts</td><td style="vertical-align:top;">:</td><td><div><table><tr><td><div>DESKTOP-2AGAA5H</div></td></tr><tr><td><div>::ffff:127.0.0.1</div></td></tr><tr><td><div>::1</div></td></tr><tr><td><div>192.168.0.15</div></td></tr><tr><td><div>fe80::416:8ca2:3a96:6ce2%10</div></td></tr><tr><td><div>127.0.0.1</div></td></tr></table></div></td></tr><tr><td style="font-weight:bold;vertical-align:top;">web2py_version</td><td style="vertical-align:top;">:</td><td><div>2.14.6-stable+timestamp.2016.05.10.00.21.47</div></td></tr></table></div></td></tr><tr><td style="font-weight:bold;vertical-align:top;">is_https</td><td style="vertical-align:top;">:</td><td><div>False</div></td></tr><tr><td style="font-weight:bold;vertical-align:top;">is_local</td><td style="vertical-align:top;">:</td><td><div>True</div></td></tr><tr><td style="font-weight:bold;vertical-align:top;">is_restful</td><td style="vertical-align:top;">:</td><td><div>False</div></td></tr><tr><td style="font-weight:bold;vertical-align:top;">is_scheduler</td><td style="vertical-align:top;">:</td><td><div>False</div></td></tr><tr><td style="font-weight:bold;vertical-align:top;">is_shell</td><td style="vertical-align:top;">:</td><td><div>False</div></td></tr><tr><td style="font-weight:bold;vertical-align:top;">now</td><td style="vertical-align:top;">:</td><td><div>datetime.datetime(2017, 4, 29, 13, 8, 34, 609000)</div></td></tr><tr><td style="font-weight:bold;vertical-align:top;">raw_args</td><td style="vertical-align:top;">:</td><td><div></div></td></tr><tr><td style="font-weight:bold;vertical-align:top;">raw_extension</td><td style="vertical-align:top;">:</td><td><div>None</div></td></tr><tr><td style="font-weight:bold;vertical-align:top;">url</td><td style="vertical-align:top;">:</td><td><div>/Commodity/default/index</div></td></tr><tr><td style="font-weight:bold;vertical-align:top;">utcnow</td><td style="vertical-align:top;">:</td><td><div>datetime.datetime(2017, 4, 29, 12, 8, 34, 609000)</div></td></tr><tr><td style="font-weight:bold;vertical-align:top;">wsgi</td><td style="vertical-align:top;">:</td><td><div>&lt;gluon.main.LazyWSGI object at 0x031FF7D0&gt;</div></td></tr></table></div>'
tRp58
sS'frames'
p59
(lp60
(dp61
S'file'
p62
S'C:\\Users\\charl\\OneDrive\\Documents\\GitHub\\Commodity\\gluon\\restricted.py'
p63
sS'dump'
p64
(dp65
S'environment'
p66
S"{'A': <class 'gluon.html.A'>, 'ANY_OF': <class 'gluon.validators.ANY_OF'>, 'ASSIGNJS': <function ASSIGNJS>, 'AppConfig': <function AppConfig>, 'Auth': <class 'gluon.tools.Auth'>, 'B': <class 'gluon.html.B'>, 'BEAUTIFY': <class 'gluon.html.BEAUTIFY'>, 'BODY': <class 'gluon.html.BODY'>, 'BR': <class 'gluon.html.BR'>, 'BUTTON': <class 'gluon.html.BUTTON'>, ...}"
p67
sS'ccode'
p68
S'<code object <module> at 04822338, file "C:\\User...ions\\Commodity\\views\\default/index.html", line 1>'
p69
ssS'lnum'
p70
I227
sS'lines'
p71
(dp72
I224
S'            ccode = code'
p73
sI225
S'        else:'
p74
sI226
S'            ccode = compile2(code, layer)'
p75
sI227
S'        exec ccode in environment'
p76
sI228
S'    except HTTP:'
p77
sI229
S'        raise'
p78
sI230
S'    except RestrictedError:'
p79
sI231
S'        # do not encapsulate (obfuscate) the original RestrictedError'
p80
sI222
S'    try:'
p81
sI223
S'        if isinstance(code, types.CodeType):'
p82
ssS'call'
p83
S'(code=r"response.write(\'<!--[if (gt IE 9)|!(IE)]><!--> <...ite(\'\\r\\n  </body>\\r\\n</html>\\r\\n\', escape=False)", environment={\'A\': <class \'gluon.html.A\'>, \'ANY_OF\': <class \'gluon.validators.ANY_OF\'>, \'ASSIGNJS\': <function ASSIGNJS>, \'AppConfig\': <function AppConfig>, \'Auth\': <class \'gluon.tools.Auth\'>, \'B\': <class \'gluon.html.B\'>, \'BEAUTIFY\': <class \'gluon.html.BEAUTIFY\'>, \'BODY\': <class \'gluon.html.BODY\'>, \'BR\': <class \'gluon.html.BR\'>, \'BUTTON\': <class \'gluon.html.BUTTON\'>, ...}, layer=r\'C:\\Users\\charl\\OneDrive\\Documents\\GitHub\\Commodity\\applications\\Commodity\\views\\default/index.html\')'
p84
sS'func'
p85
S'restricted'
p86
sa(dp87
g62
S'C:\\Users\\charl\\OneDrive\\Documents\\GitHub\\Commodity\\applications\\Commodity\\views\\default\\index.html'
p88
sg64
(dp89
sg70
I98
sg71
(dp90
I96
S'response.write(product3Name)'
p91
sI97
S'response.write(\' <span class="label label-success">NEW</span> </h3>\\r\\n                          <p>Tags: \', escape=False)'
p92
sI98
S'response.write(productTag1[0])'
p93
sI99
S"response.write(' ', escape=False)"
p94
sI100
S'response.write(productTag2[0])'
p95
sI101
S"response.write(' ', escape=False)"
p96
sI102
S'response.write(productTag3[0])'
p97
sI103
S"response.write('</p>\\r\\n                      </div>\\r\\n                  </div>\\r\\n              </div>\\r\\n              </div>\\r\\n        </div>\\r\\n      </div>\\r\\n    </header>\\r\\n', escape=False)"
p98
sI104
S'response.write(\'\\r\\n    <!-- Main ========================================= -->\\r\\n    <!-- Begin page content -->\\r\\n    <div class="container-fluid main-container">\\r\\n      \', escape=False)'
p99
sI105
S'if left_sidebar_enabled:'
p100
sI106
S'    response.write(\'\\r\\n        <div class="col-md-3 left-sidebar">\\r\\n            \', escape=False)'
p101
sI107
S"    response.write('\\r\\n            <h3>Left Sidebar</h3>\\r\\n            <p></p>\\r\\n            ', escape=False)"
p102
sI108
S"    response.write('\\r\\n        </div>\\r\\n      ', escape=False)"
p103
sI89
S'response.write(\'</p>\\r\\n                          <p><a href="\', escape=False)'
p104
sI90
S'response.write(product2URL)'
p105
sI91
S'response.write(\'" class="btn btn-primary" role="button">View \', escape=False)'
p106
sI92
S'response.write(product2Name)'
p107
sI93
S'response.write(\'</a></p>\\r\\n                      </div>\\r\\n                  </div>\\r\\n              </div>\\r\\n              <div class="col-xs-6 col-sm-4">\\r\\n                  <div class="thumbnail">\\r\\n                      <img src="\', escape=False)'
p108
sI94
S"response.write(URL('default', 'download', args=product3Image))"
p109
sI95
S'response.write(\'"/>\\r\\n                      <div class="caption">\\r\\n                          <h3>\', escape=False)'
p110
ssg83
S'()'
p111
sg85
S'<module>'
p112
sasS'pyver'
p113
S'Python 2.7.9: C:\\Users\\charl\\OneDrive\\Documents\\GitHub\\Commodity\\web2py.exe (prefix: )'
p114
sS'session'
p115
g57
(S's\x1a\x00\x00\x00<div><table></table></div>'
tRp116
sS'etype'
p117
S"<type 'exceptions.NameError'>"
p118
sS'date'
p119
S'Sat Apr 29 13:08:34 2017'
p120
sS'response'
p121
g57
(S's\x0e#\x00\x00<div><table><tr><td style="font-weight:bold;vertical-align:top;">body</td><td style="vertical-align:top;">:</td><td><div>&lt;cStringIO.StringO object at 0x031FF8E0&gt;</div></td></tr><tr><td style="font-weight:bold;vertical-align:top;">cookies</td><td style="vertical-align:top;">:</td><td><div><table><tr><td style="font-weight:bold;vertical-align:top;">session_id_commodity</td><td style="vertical-align:top;">:</td><td><div>127.0.0.1-f0975ea8-e207-49e9-a72c-b47824b2a3cc<table><tr><td style="font-weight:bold;vertical-align:top;">comment</td><td style="vertical-align:top;">:</td><td><div></div></td></tr><tr><td style="font-weight:bold;vertical-align:top;">domain</td><td style="vertical-align:top;">:</td><td><div></div></td></tr><tr><td style="font-weight:bold;vertical-align:top;">expires</td><td style="vertical-align:top;">:</td><td><div></div></td></tr><tr><td style="font-weight:bold;vertical-align:top;">httponly</td><td style="vertical-align:top;">:</td><td><div></div></td></tr><tr><td style="font-weight:bold;vertical-align:top;">max-age</td><td style="vertical-align:top;">:</td><td><div></div></td></tr><tr><td style="font-weight:bold;vertical-align:top;">path</td><td style="vertical-align:top;">:</td><td><div>/</div></td></tr><tr><td style="font-weight:bold;vertical-align:top;">secure</td><td style="vertical-align:top;">:</td><td><div></div></td></tr><tr><td style="font-weight:bold;vertical-align:top;">version</td><td style="vertical-align:top;">:</td><td><div></div></td></tr></table></div></td></tr></table></div></td></tr><tr><td style="font-weight:bold;vertical-align:top;">delimiters</td><td style="vertical-align:top;">:</td><td><div><table><tr><td><div>{{</div></td></tr><tr><td><div>}}</div></td></tr></table></div></td></tr><tr><td style="font-weight:bold;vertical-align:top;">files</td><td style="vertical-align:top;">:</td><td><div><table><tr><td><div>/Commodity/static/js/jquery.js</div></td></tr><tr><td><div>/Commodity/static/css/calendar.css</div></td></tr><tr><td><div>/Commodity/static/js/calendar.js</div></td></tr><tr><td><div>/Commodity/static/js/web2py.js</div></td></tr></table></div></td></tr><tr><td style="font-weight:bold;vertical-align:top;">flash</td><td style="vertical-align:top;">:</td><td><div></div></td></tr><tr><td style="font-weight:bold;vertical-align:top;">form_label_separator</td><td style="vertical-align:top;">:</td><td><div></div></td></tr><tr><td style="font-weight:bold;vertical-align:top;">formstyle</td><td style="vertical-align:top;">:</td><td><div>bootstrap3_inline</div></td></tr><tr><td style="font-weight:bold;vertical-align:top;">generic_patterns</td><td style="vertical-align:top;">:</td><td><div><table><tr><td><div>*</div></td></tr></table></div></td></tr><tr><td style="font-weight:bold;vertical-align:top;">google_analytics_id</td><td style="vertical-align:top;">:</td><td><div>None</div></td></tr><tr><td style="font-weight:bold;vertical-align:top;">headers</td><td style="vertical-align:top;">:</td><td><div><table><tr><td style="font-weight:bold;vertical-align:top;">X-Powered-By</td><td style="vertical-align:top;">:</td><td><div>web2py</div></td></tr></table></div></td></tr><tr><td style="font-weight:bold;vertical-align:top;">logo</td><td style="vertical-align:top;">:</td><td><div><a><img href="/Commodity/default/index" src="/Commodity/static/images/Commodity_Logo.png" /></a></div></td></tr><tr><td style="font-weight:bold;vertical-align:top;">menu</td><td style="vertical-align:top;">:</td><td><div><table><tr><td><div><table><tr><td><div>Home</div></td></tr><tr><td><div>False</div></td></tr><tr><td><div>/Commodity/default/index</div></td></tr><tr><td><div><table></table></div></td></tr></table></div></td></tr><tr><td><div><table><tr><td><div>New Product</div></td></tr><tr><td><div>False</div></td></tr><tr><td><div>/Commodity/default/newProduct</div></td></tr><tr><td><div><table></table></div></td></tr></table></div></td></tr><tr><td><div><table><tr><td><div>Add Retailer</div></td></tr><tr><td><div>False</div></td></tr><tr><td><div>/Commodity/default/addRetailer</div></td></tr><tr><td><div><table></table></div></td></tr></table></div></td></tr><tr><td><div><table><tr><td><div>View All Products</div></td></tr><tr><td><div>False</div></td></tr><tr><td><div>/Commodity/default/viewAllProducts</div></td></tr><tr><td><div><table></table></div></td></tr></table></div></td></tr><tr><td><div><table><tr><td><div>Your Reviews</div></td></tr><tr><td><div>False</div></td></tr><tr><td><div>/Commodity/default/getReviews</div></td></tr><tr><td><div><table></table></div></td></tr></table></div></td></tr><tr><td><div><table><tr><td><div>Search Products</div></td></tr><tr><td><div>False</div></td></tr><tr><td><div>/Commodity/default/searchProduct</div></td></tr><tr><td><div><table></table></div></td></tr></table></div></td></tr></table></div></td></tr><tr><td style="font-weight:bold;vertical-align:top;">meta</td><td style="vertical-align:top;">:</td><td><div><table><tr><td style="font-weight:bold;vertical-align:top;">author</td><td style="vertical-align:top;">:</td><td><div>Your Name &lt;you@example.com&gt;</div></td></tr><tr><td style="font-weight:bold;vertical-align:top;">description</td><td style="vertical-align:top;">:</td><td><div>a cool new app</div></td></tr><tr><td style="font-weight:bold;vertical-align:top;">generator</td><td style="vertical-align:top;">:</td><td><div>Web2py Web Framework</div></td></tr><tr><td style="font-weight:bold;vertical-align:top;">keywords</td><td style="vertical-align:top;">:</td><td><div><table><tr><td><div>web2py</div></td></tr><tr><td><div>python</div></td></tr><tr><td><div>framework</div></td></tr></table></div></td></tr></table></div></td></tr><tr><td style="font-weight:bold;vertical-align:top;">models_to_run</td><td style="vertical-align:top;">:</td><td><div><table><tr><td><div>^\\w+\\.py$</div></td></tr><tr><td><div>^default/\\w+\\.py$</div></td></tr><tr><td><div>^default/index/\\w+\\.py$</div></td></tr></table></div></td></tr><tr><td style="font-weight:bold;vertical-align:top;">postprocessing</td><td style="vertical-align:top;">:</td><td><div><table></table></div></td></tr><tr><td style="font-weight:bold;vertical-align:top;">session_client</td><td style="vertical-align:top;">:</td><td><div>127.0.0.1</div></td></tr><tr><td style="font-weight:bold;vertical-align:top;">session_cookie_compression_level</td><td style="vertical-align:top;">:</td><td><div>None</div></td></tr><tr><td style="font-weight:bold;vertical-align:top;">session_cookie_expires</td><td style="vertical-align:top;">:</td><td><div>None</div></td></tr><tr><td style="font-weight:bold;vertical-align:top;">session_data_name</td><td style="vertical-align:top;">:</td><td><div>session_data_commodity</div></td></tr><tr><td style="font-weight:bold;vertical-align:top;">session_file</td><td style="vertical-align:top;">:</td><td><div>&lt;open file &#x27;C:\\\\Users\\\\charl\\\\OneDrive\\\\Documents\\\\GitHub\\\\Commodity\\\\applications\\\\Commodity\\\\sessions\\\\0e1\\\\11e\\\\127.0.0.1-f0975ea8-e207-49e9-a72c-b47824b2a3cc&#x27;, mode &#x27;rb+&#x27; at 0x0A8EFB78&gt;</div></td></tr><tr><td style="font-weight:bold;vertical-align:top;">session_filename</td><td style="vertical-align:top;">:</td><td><div>C:\\Users\\charl\\OneDrive\\Documents\\GitHub\\Commodity\\applications\\Commodity\\sessions\\127.0.0.1-f0975ea8-e207-49e9-a72c-b47824b2a3cc</div></td></tr><tr><td style="font-weight:bold;vertical-align:top;">session_hash</td><td style="vertical-align:top;">:</td><td><div>80d424711d3a0fd8b12a46eeaa04a41c</div></td></tr><tr><td style="font-weight:bold;vertical-align:top;">session_id</td><td style="vertical-align:top;">:</td><td><div>127.0.0.1-f0975ea8-e207-49e9-a72c-b47824b2a3cc</div></td></tr><tr><td style="font-weight:bold;vertical-align:top;">session_id_name</td><td style="vertical-align:top;">:</td><td><div>session_id_commodity</div></td></tr><tr><td style="font-weight:bold;vertical-align:top;">session_locked</td><td style="vertical-align:top;">:</td><td><div>True</div></td></tr><tr><td style="font-weight:bold;vertical-align:top;">session_masterapp</td><td style="vertical-align:top;">:</td><td><div>Commodity</div></td></tr><tr><td style="font-weight:bold;vertical-align:top;">session_new</td><td style="vertical-align:top;">:</td><td><div>False</div></td></tr><tr><td style="font-weight:bold;vertical-align:top;">session_storage_type</td><td style="vertical-align:top;">:</td><td><div>file</div></td></tr><tr><td style="font-weight:bold;vertical-align:top;">status</td><td style="vertical-align:top;">:</td><td><div>200</div></td></tr><tr><td style="font-weight:bold;vertical-align:top;">subtitle</td><td style="vertical-align:top;">:</td><td><div></div></td></tr><tr><td style="font-weight:bold;vertical-align:top;">title</td><td style="vertical-align:top;">:</td><td><div>Commodity</div></td></tr><tr><td style="font-weight:bold;vertical-align:top;">view</td><td style="vertical-align:top;">:</td><td><div>default/index.html</div></td></tr></table></div>'
tRp122
sS'locals'
p123
(dp124
S'Service'
p125
S"<class 'gluon.tools.Service'>"
p126
sS'OBJECT'
p127
S"<class 'gluon.html.OBJECT'>"
p128
sS'SQLDB'
p129
S"<class 'pydal.base.DAL'>"
p130
sg115
S"<Storage {'_formkey[default]': ['42e67e4b-7cf5-4...f9bca', '88cff8f6-74e8-4a4c-861b-912143a52f10']}>"
p131
sS'LINK'
p132
S"<class 'gluon.html.LINK'>"
p133
sS'BR'
p134
S"<class 'gluon.html.BR'>"
p135
sS'local_import'
p136
S'<function <lambda>>'
p137
sS'OPTGROUP'
p138
S"<class 'gluon.html.OPTGROUP'>"
p139
sS'__package__'
p140
S'None'
p141
sS'row'
p142
S"<Row {'reviewer_id': None, 'review_name': 'Great...ime.datetime(2017, 4, 27, 17, 45, 59), 'id': 1L}>"
p143
sS'PRE'
p144
S"<class 'gluon.html.PRE'>"
p145
sS'IS_INT_IN_RANGE'
p146
S"<class 'gluon.validators.IS_INT_IN_RANGE'>"
p147
sS'reviewerName'
p148
S"[None, 'Rob', None, None]"
p149
sS'IS_LOWER'
p150
S"<class 'gluon.validators.IS_LOWER'>"
p151
sS'IS_STRONG'
p152
S"<class 'gluon.validators.IS_STRONG'>"
p153
sS'cache'
p154
S'<gluon.cache.Cache object>'
p155
sS'IS_IN_DB'
p156
S"<class 'gluon.validators.IS_IN_DB'>"
p157
sS'TAG'
p158
S'<gluon.html.__TAG__ object>'
p159
sS'CRYPT'
p160
S"<class 'gluon.validators.CRYPT'>"
p161
sS'SQLField'
p162
S"<class 'pydal.objects.Field'>"
p163
sS'mail'
p164
S'<gluon.tools.Mail object>'
p165
sS'BODY'
p166
S"<class 'gluon.html.BODY'>"
p167
sS'IS_DATE_IN_RANGE'
p168
S"<class 'gluon.validators.IS_DATE_IN_RANGE'>"
p169
sS'IFRAME'
p170
S"<class 'gluon.html.IFRAME'>"
p171
sS'URL'
p172
S'<function URL>'
p173
sS'__file__'
p174
S"r'C:\\Users\\charl\\OneDrive\\Documents\\GitHub\\Commodity\\applications\\Commodity\\views\\default/index.html'"
p175
sS'db'
p176
S'<DAL uri="sqlite://storage.sqlite">'
p177
sS'auth'
p178
S'<gluon.tools.Auth object>'
p179
sS'P'
S"<class 'gluon.html.P'>"
p180
sS'reviewTimeStamp'
p181
S'[datetime.datetime(2017, 4, 27, 22, 7), datetime.datetime(2017, 4, 27, 19, 50, 32), datetime.datetime(2017, 4, 27, 17, 50, 58), datetime.datetime(2017, 4, 27, 17, 45, 59)]'
p182
sS'TFOOT'
p183
S"<class 'gluon.html.TFOOT'>"
p184
sS'reviewRating'
p185
S'[-1L, 12L, None, None]'
p186
sS'product1Image'
p187
S"'products.product_image.98d6ae6165a5f53d.6d656d652e4a5047.JPG'"
p188
sS'XHTML'
p189
S"<class 'gluon.html.XHTML'>"
p190
sS'product2URL'
p191
S"'/Commodity/default/viewProduct?productID=2'"
p192
sS'reviewName'
p193
S"['This is the dankest thing possible!!!!!', 'James is a nice guy', 'Memes', 'Great Product']"
p194
sS'ON'
p195
S'True'
p196
sS'OL'
p197
S"<class 'gluon.html.OL'>"
p198
sS'TEXTAREA'
p199
S"<class 'gluon.html.TEXTAREA'>"
p200
sS'MENU'
p201
S"<class 'gluon.html.MENU'>"
p202
sS'STYLE'
p203
S"<class 'gluon.html.STYLE'>"
p204
sS'product2Tag3'
p205
S'None'
p206
sS'EM'
p207
S"<class 'gluon.html.EM'>"
p208
sS'CODE'
p209
S"<class 'gluon.html.CODE'>"
p210
sS'HTTP'
p211
S"<class 'gluon.http.HTTP'>"
p212
sS'productIDURL'
p213
S"['/Commodity/default/viewProduct?productID=3', '/Commodity/default/viewProduct?productID=3', '/Commodity/default/viewProduct?productID=None', '/Commodity/default/viewProduct?productID=None']"
p214
sS'HR'
p215
S"<class 'gluon.html.HR'>"
p216
sS'IS_DATETIME'
p217
S"<class 'gluon.validators.IS_DATETIME'>"
p218
sS'product'
p219
S'<Table products (id, product_name, product_descr... product_image, tag_1, tag_2, tag_3, time_stamp)>'
p220
sS'LABEL'
p221
S"<class 'gluon.html.LABEL'>"
p222
sS'CLEANUP'
p223
S"<class 'gluon.validators.CLEANUP'>"
p224
sS'product3URL'
p225
S"'/Commodity/default/viewProduct?productID=1'"
p226
sS'plugins'
p227
S'<gluon.tools.PluginManager object>'
p228
sS'SELECT'
p229
S"<class 'gluon.html.SELECT'>"
p230
sS'CENTER'
p231
S"<class 'gluon.html.CENTER'>"
p232
sS'Auth'
p233
S"<class 'gluon.tools.Auth'>"
p234
sS'DEVELOPMENT_MENU'
p235
g196
sS'__builtins__'
p236
S"{'ArithmeticError': <type 'exceptions.ArithmeticError'>, 'AssertionError': <type 'exceptions.AssertionError'>, 'AttributeError': <type 'exceptions.AttributeError'>, 'BaseException': <type 'exceptions.BaseException'>, 'BufferError': <type 'exceptions.BufferError'>, 'BytesWarning': <type 'exceptions.BytesWarning'>, 'DeprecationWarning': <type 'exceptions.DeprecationWarning'>, 'EOFError': <type 'exceptions.EOFError'>, 'Ellipsis': Ellipsis, 'EnvironmentError': <type 'exceptions.EnvironmentError'>, ...}"
p237
sS'HTML'
p238
S"<class 'gluon.html.HTML'>"
p239
sS'reviewContent'
p240
S'[\'\\xe3\\x82\\xb8\\xe3\\x82\\xa7\\xe3\\x83\\xbc\\xe3\\x83\\xa0\\xe3\\x82\\xba\\xe3\\x81\\xaf\\xe3\\x81\\xa8\\xe3\\x81\\xa6\\xe3\\x82\\x82\\xe3\\x81\\x8b\\xe3\\x82\\x8f\\xe3\\x81\\x84\\xe3\\x81\\x84\\xe3\\x81\\xa7\\xe3\\x81\\x99\\xe3\\x80\\x81...\\xb9\\xe3\\x83\\xbc\\xe3\\x83\\x91\\xe3\\x83\\xbc\\xe3\\x80\\x81\\xe7\\xa7\\x81\\xe3\\x82\\x82\\xe5\\xbd\\xbc\\xe3\\x81\\xae\\xe3\\x82\\xa2\\xe3\\x83\\x92\\xe3\\x83\\xab\\xe3\\x82\\x92\\xe5\\x90\\xb8\\xe3\\x81\\x86\\xe5\\x90\\xb8\\xe3\\x81\\x86\', "He\'s a nice guy <3", \'orweborbwef\', \'I like James\']'
p241
sS'SQLFORM'
p242
S"<class 'gluon.sqlhtml.SQLFORM'>"
p243
sS'LOAD'
p244
S'<function LOAD>'
p245
sS'redirect'
p246
S'<function redirect>'
p247
sS'FIELDSET'
p248
S"<class 'gluon.html.FIELDSET'>"
p249
sS'IS_EQUAL_TO'
p250
S"<class 'gluon.validators.IS_EQUAL_TO'>"
p251
sS'productName'
p252
S'<pydal.objects.Field object>'
p253
sS'embed64'
p254
S'<function embed64>'
p255
sS'IS_LIST_OF'
p256
S"<class 'gluon.validators.IS_LIST_OF'>"
p257
sS'product3Image'
p258
S"'products.product_image.95fbe2eabbabc14f.6d656d652e4a5047.JPG'"
p259
sS'__name__'
p260
S"'__restricted__'"
p261
sS'EMBED'
p262
S"<class 'gluon.html.EMBED'>"
p263
sS'_'
S'<function _>'
p264
sS'IS_IMAGE'
p265
S"<class 'gluon.validators.IS_IMAGE'>"
p266
sS'myconf'
p267
S"{'forms': {'formstyle': 'bootstrap3_inline', 'se...': {'names': 'localhost:*, 127.0.0.1:*, *:*, *'}}"
p268
sS'H2'
p269
S"<class 'gluon.html.H2'>"
p270
sS'H3'
p271
S"<class 'gluon.html.H3'>"
p272
sS'AppConfig'
p273
S'<function AppConfig>'
p274
sS'H1'
p275
S"<class 'gluon.html.H1'>"
p276
sS'H6'
p277
S"<class 'gluon.html.H6'>"
p278
sS'H4'
p279
S"<class 'gluon.html.H4'>"
p280
sS'H5'
p281
S"<class 'gluon.html.H5'>"
p282
sS'UL'
p283
S"<class 'gluon.html.UL'>"
p284
sS'IS_UPPER'
p285
S"<class 'gluon.validators.IS_UPPER'>"
p286
sS'xmlescape'
p287
S'<function xmlescape>'
p288
sS'IS_TIME'
p289
S"<class 'gluon.validators.IS_TIME'>"
p290
sS'OPTION'
p291
S"<class 'gluon.html.OPTION'>"
p292
sS'TITLE'
p293
S"<class 'gluon.html.TITLE'>"
p294
sS'product2Image'
p295
S"'products.product_image.942c48dc064112c2.6d656d652e4a5047.JPG'"
p296
sS'IS_EMPTY_OR'
p297
S"<class 'gluon.validators.IS_EMPTY_OR'>"
p298
sS'MARKMIN'
p299
S"<class 'gluon.html.MARKMIN'>"
p300
sS'product3Tag1'
p301
S'None'
p302
sS'product3Tag2'
p303
S'None'
p304
sS'product3Tag3'
p305
S'None'
p306
sS'INPUT'
p307
S"<class 'gluon.html.INPUT'>"
p308
sS'product1URL'
p309
S"'/Commodity/default/viewProduct?productID=3'"
p310
sS'STRONG'
p311
S"<class 'gluon.html.STRONG'>"
p312
sS'COL'
p313
S"<class 'gluon.html.COL'>"
p314
sS'mc1'
p315
S"'col-md-9'"
p316
sS'mc0'
p317
S"'col-md-12'"
p318
sS'service'
p319
S'<gluon.tools.Service object>'
p320
sS'SCRIPT'
p321
S"<class 'gluon.html.SCRIPT'>"
p322
sS'TABLE'
p323
S"<class 'gluon.html.TABLE'>"
p324
sS'IS_IPV4'
p325
S"<class 'gluon.validators.IS_IPV4'>"
p326
sS'IS_LENGTH'
p327
S"<class 'gluon.validators.IS_LENGTH'>"
p328
sS'IS_IPV6'
p329
S"<class 'gluon.validators.IS_IPV6'>"
p330
sS'XML'
p331
S"<class 'gluon.html.XML'>"
p332
sS'B'
S"<class 'gluon.html.B'>"
p333
sS'A'
S"<class 'gluon.html.A'>"
p334
sS'IMG'
p335
S"<class 'gluon.html.IMG'>"
p336
sS'SQLTABLE'
p337
S"<class 'gluon.sqlhtml.SQLTABLE'>"
p338
sS'IS_MATCH'
p339
S"<class 'gluon.validators.IS_MATCH'>"
p340
sS'IS_ALPHANUMERIC'
p341
S"<class 'gluon.validators.IS_ALPHANUMERIC'>"
p342
sS'SPAN'
p343
S"<class 'gluon.html.SPAN'>"
p344
sS'IS_JSON'
p345
S"<class 'gluon.validators.IS_JSON'>"
p346
sS'IS_IPADDRESS'
p347
S"<class 'gluon.validators.IS_IPADDRESS'>"
p348
sS'product3Name'
p349
S"'Test'"
p350
sS'IS_SLUG'
p351
S"<class 'gluon.validators.IS_SLUG'>"
p352
sS'product2Name'
p353
S"'Test'"
p354
sS'BEAUTIFY'
p355
S"<class 'gluon.html.BEAUTIFY'>"
p356
sS'META'
p357
S"<class 'gluon.html.META'>"
p358
sS'BUTTON'
p359
S"<class 'gluon.html.BUTTON'>"
p360
sS'IS_DATE'
p361
S"<class 'gluon.validators.IS_DATE'>"
p362
sS'IS_EMAIL'
p363
S"<class 'gluon.validators.IS_EMAIL'>"
p364
sS'middle_column'
p365
S"'col-md-12'"
p366
sS'IS_NOT_EMPTY'
p367
S"<class 'gluon.validators.IS_NOT_EMPTY'>"
p368
sS'IS_FLOAT_IN_RANGE'
p369
S"<class 'gluon.validators.IS_FLOAT_IN_RANGE'>"
p370
sS'TBODY'
p371
S"<class 'gluon.html.TBODY'>"
p372
sS'CAT'
p373
S"<class 'gluon.html.CAT'>"
p374
sS'Field'
p375
S"<class 'pydal.objects.Field'>"
p376
sS'mc2'
p377
S"'col-md-6'"
p378
sS'o'
S'4'
sS'IS_LIST_OF_EMAILS'
p379
S"<class 'gluon.validators.IS_LIST_OF_EMAILS'>"
p380
sS'DIV'
p381
S"<class 'gluon.html.DIV'>"
p382
sS'LEGEND'
p383
S"<class 'gluon.html.LEGEND'>"
p384
sS'COLGROUP'
p385
S"<class 'gluon.html.COLGROUP'>"
p386
sS'DAL'
p387
S"<class 'pydal.base.DAL'>"
p388
sS'ASSIGNJS'
p389
S'<function ASSIGNJS>'
p390
sS'TR'
p391
S"<class 'gluon.html.TR'>"
p392
sS'LI'
p393
S"<class 'gluon.html.LI'>"
p394
sS'right_sidebar_enabled'
p395
S'False'
p396
sS'TH'
p397
S"<class 'gluon.html.TH'>"
p398
sS'TD'
p399
S"<class 'gluon.html.TD'>"
p400
sS'PluginManager'
p401
S"<class 'gluon.tools.PluginManager'>"
p402
sS'IS_URL'
p403
S"<class 'gluon.validators.IS_URL'>"
p404
sS'product2Tag1'
p405
S'None'
p406
sS'HEAD'
p407
S"<class 'gluon.html.HEAD'>"
p408
sS'product2Tag2'
p409
S'None'
p410
sS'IS_DATETIME_IN_RANGE'
p411
S"<class 'gluon.validators.IS_DATETIME_IN_RANGE'>"
p412
sS'FORM'
p413
S"<class 'gluon.html.FORM'>"
p414
sS'I'
S"<class 'gluon.html.I'>"
p415
sS'product1Tag2'
p416
S"'Memes'"
p417
sS'product1Tag3'
p418
S"'MoreMemes'"
p419
sS'product1Tag1'
p420
S"'Test'"
p421
sS'left_sidebar_enabled'
p422
g396
sS'IS_NOT_IN_DB'
p423
S"<class 'gluon.validators.IS_NOT_IN_DB'>"
p424
sg121
S"<Storage {'body': <cStringIO.StringO object at 0...a> at 0x03C2D8F0>, 'view': 'default/index.html'}>"
p425
sS'THEAD'
p426
S"<class 'gluon.html.THEAD'>"
p427
sS'ANY_OF'
p428
S"<class 'gluon.validators.ANY_OF'>"
p429
sS'IS_NULL_OR'
p430
S"<class 'gluon.validators.IS_EMPTY_OR'>"
p431
sS'i'
S'3'
sS'product1Name'
p432
S"'Memes'"
p433
sg56
S"<Storage {'_vars': None, 'function': 'index', 'c...\\\\GitHub\\\\Commodity\\\\applications\\\\Commodity\\\\'}>"
p434
sS'IS_EXPR'
p435
S"<class 'gluon.validators.IS_EXPR'>"
p436
sS'T'
S'<gluon.languages.translator object>'
p437
sS'IS_IN_SET'
p438
S"<class 'gluon.validators.IS_IN_SET'>"
p439
sS'IS_UPLOAD_FILENAME'
p440
S"<class 'gluon.validators.IS_UPLOAD_FILENAME'>"
p441
sS'TT'
p442
S"<class 'gluon.html.TT'>"
p443
sS'IS_DECIMAL_IN_RANGE'
p444
S"<class 'gluon.validators.IS_DECIMAL_IN_RANGE'>"
p445
sssS'traceback'
p446
S'Traceback (most recent call last):\n  File "C:\\Users\\charl\\OneDrive\\Documents\\GitHub\\Commodity\\gluon\\restricted.py", line 227, in restricted\n    exec ccode in environment\n  File "C:\\Users\\charl\\OneDrive\\Documents\\GitHub\\Commodity\\applications\\Commodity\\views\\default/index.html", line 98, in <module>\nNameError: name \'productTag1\' is not defined\n'
p447
s.