(dp1
S'output'
p2
S"<type 'exceptions.IOError'> [Errno 13] Permission denied: 'C:\\\\Users\\\\robta\\\\OneDrive\\\\Documents\\\\GitHub\\\\Commodity\\\\applications\\\\Commodity\\\\databases\\\\c8b669d15150d7109e5f7ab36744a5b7_product_retail_link.table'"
p3
sS'layer'
p4
S'C:\\Users\\robta\\OneDrive\\Documents\\GitHub\\Commodity\\applications\\Commodity\\models\\db1.py'
p5
sS'code'
p6
S"# -*- coding: utf-8 -*-\ndb.define_table('products',\n                Field('product_name', requires=IS_NOT_EMPTY()),\n                Field('product_description','text',requires=IS_NOT_EMPTY()),\n                Field('product_price','double',requires=IS_NOT_EMPTY()),\n                Field('product_stock','integer',requires=IS_NOT_EMPTY()),\n                Field('product_image','upload',requires=IS_NOT_EMPTY()),\n                Field('tag_1', requires=IS_NOT_EMPTY()),\n                Field('tag_2', requires=IS_NOT_EMPTY()),\n                Field('tag_3', requires=IS_NOT_EMPTY()),\n                Field('time_stamp','datetime',writable=False,default=request.now)\n                )\n\ndb.define_table('reviews',\n                Field('review_name',requires=IS_NOT_EMPTY()),\n                Field('review_content','text',requires=IS_NOT_EMPTY()),\n                Field('review_rating','integer',requires=IS_NOT_EMPTY()),\n                Field('time_stamp','datetime',writable=False,default=request.now)\n                )\n\ndb.define_table('retailers',\n                Field('retailer_name',requires=IS_NOT_EMPTY()),\n                Field('retailer_website',requires=IS_NOT_EMPTY())\n                )\n\ndb.define_table('product_retail_link',\n                Field('id','reference products',requires=IS_NOT_EMPTY()),\n                Field('id','reference retailers',requires=IS_NOT_EMPTY())\n                )\n"
p7
sS'snapshot'
p8
(dp9
S'exception'
p10
(dp11
S'__getslice__'
p12
S"<method-wrapper '__getslice__' of exceptions.IOError object>"
p13
sS'__str__'
p14
S"<method-wrapper '__str__' of exceptions.IOError object>"
p15
sS'__reduce__'
p16
S'<built-in method __reduce__ of exceptions.IOError object>'
p17
sS'__dict__'
p18
S'{}'
p19
sS'__sizeof__'
p20
S'<built-in method __sizeof__ of exceptions.IOError object>'
p21
sS'__init__'
p22
S"<method-wrapper '__init__' of exceptions.IOError object>"
p23
sS'__setattr__'
p24
S"<method-wrapper '__setattr__' of exceptions.IOError object>"
p25
sS'__reduce_ex__'
p26
S'<built-in method __reduce_ex__ of exceptions.IOError object>'
p27
sS'__new__'
p28
S'<built-in method __new__ of type object>'
p29
sS'errno'
p30
S'13'
p31
sS'__format__'
p32
S'<built-in method __format__ of exceptions.IOError object>'
p33
sS'__class__'
p34
S"<type 'exceptions.IOError'>"
p35
sS'filename'
p36
S"r'C:\\Users\\robta\\OneDrive\\Documents\\GitHub\\Commodi...150d7109e5f7ab36744a5b7_product_retail_link.table'"
p37
sS'__doc__'
p38
S"'I/O operation failed.'"
p39
sS'__getitem__'
p40
S"<method-wrapper '__getitem__' of exceptions.IOError object>"
p41
sS'__setstate__'
p42
S'<built-in method __setstate__ of exceptions.IOError object>'
p43
sS'__getattribute__'
p44
S"<method-wrapper '__getattribute__' of exceptions.IOError object>"
p45
sS'args'
p46
S"(13, 'Permission denied')"
p47
sS'__subclasshook__'
p48
S'<built-in method __subclasshook__ of type object>'
p49
sS'__unicode__'
p50
S'<built-in method __unicode__ of exceptions.IOError object>'
p51
sS'strerror'
p52
S"'Permission denied'"
p53
sS'__delattr__'
p54
S"<method-wrapper '__delattr__' of exceptions.IOError object>"
p55
sS'__repr__'
p56
S"<method-wrapper '__repr__' of exceptions.IOError object>"
p57
sS'__hash__'
p58
S"<method-wrapper '__hash__' of exceptions.IOError object>"
p59
ssS'evalue'
p60
S"[Errno 13] Permission denied: 'C:\\\\Users\\\\robta\\\\OneDrive\\\\Documents\\\\GitHub\\\\Commodity\\\\applications\\\\Commodity\\\\databases\\\\c8b669d15150d7109e5f7ab36744a5b7_product_retail_link.table'"
p61
sS'request'
p62
cgluon.html
XML_unpickle
p63
(S'sna\x00\x00<div><table><tr><td style="font-weight:bold;vertical-align:top;">ajax</td><td style="vertical-align:top;">:</td><td><div>True</div></td></tr><tr><td style="font-weight:bold;vertical-align:top;">application</td><td style="vertical-align:top;">:</td><td><div>Commodity</div></td></tr><tr><td style="font-weight:bold;vertical-align:top;">args</td><td style="vertical-align:top;">:</td><td><div><table></table></div></td></tr><tr><td style="font-weight:bold;vertical-align:top;">cid</td><td style="vertical-align:top;">:</td><td><div>c441416873081</div></td></tr><tr><td style="font-weight:bold;vertical-align:top;">client</td><td style="vertical-align:top;">:</td><td><div>127.0.0.1</div></td></tr><tr><td style="font-weight:bold;vertical-align:top;">controller</td><td style="vertical-align:top;">:</td><td><div>appadmin</div></td></tr><tr><td style="font-weight:bold;vertical-align:top;">cookies</td><td style="vertical-align:top;">:</td><td><div><table><tr><td style="font-weight:bold;vertical-align:top;">session_id_admin</td><td style="vertical-align:top;">:</td><td><div>127.0.0.1-d9c06f2e-2b14-485a-ace9-f23fca21aa8d<table><tr><td style="font-weight:bold;vertical-align:top;">comment</td><td style="vertical-align:top;">:</td><td><div></div></td></tr><tr><td style="font-weight:bold;vertical-align:top;">domain</td><td style="vertical-align:top;">:</td><td><div></div></td></tr><tr><td style="font-weight:bold;vertical-align:top;">expires</td><td style="vertical-align:top;">:</td><td><div></div></td></tr><tr><td style="font-weight:bold;vertical-align:top;">httponly</td><td style="vertical-align:top;">:</td><td><div></div></td></tr><tr><td style="font-weight:bold;vertical-align:top;">max-age</td><td style="vertical-align:top;">:</td><td><div></div></td></tr><tr><td style="font-weight:bold;vertical-align:top;">path</td><td style="vertical-align:top;">:</td><td><div></div></td></tr><tr><td style="font-weight:bold;vertical-align:top;">secure</td><td style="vertical-align:top;">:</td><td><div></div></td></tr><tr><td style="font-weight:bold;vertical-align:top;">version</td><td style="vertical-align:top;">:</td><td><div></div></td></tr></table></div></td></tr><tr><td style="font-weight:bold;vertical-align:top;">session_id_commodity</td><td style="vertical-align:top;">:</td><td><div>127.0.0.1-9f009b95-8f77-43a9-a441-8d7065c93c6d<table><tr><td style="font-weight:bold;vertical-align:top;">comment</td><td style="vertical-align:top;">:</td><td><div></div></td></tr><tr><td style="font-weight:bold;vertical-align:top;">domain</td><td style="vertical-align:top;">:</td><td><div></div></td></tr><tr><td style="font-weight:bold;vertical-align:top;">expires</td><td style="vertical-align:top;">:</td><td><div></div></td></tr><tr><td style="font-weight:bold;vertical-align:top;">httponly</td><td style="vertical-align:top;">:</td><td><div></div></td></tr><tr><td style="font-weight:bold;vertical-align:top;">max-age</td><td style="vertical-align:top;">:</td><td><div></div></td></tr><tr><td style="font-weight:bold;vertical-align:top;">path</td><td style="vertical-align:top;">:</td><td><div></div></td></tr><tr><td style="font-weight:bold;vertical-align:top;">secure</td><td style="vertical-align:top;">:</td><td><div></div></td></tr><tr><td style="font-weight:bold;vertical-align:top;">version</td><td style="vertical-align:top;">:</td><td><div></div></td></tr></table></div></td></tr><tr><td style="font-weight:bold;vertical-align:top;">session_id_welcome</td><td style="vertical-align:top;">:</td><td><div>127.0.0.1-fadc108f-8ae6-4ef9-96d1-84e3d6ffce5a<table><tr><td style="font-weight:bold;vertical-align:top;">comment</td><td style="vertical-align:top;">:</td><td><div></div></td></tr><tr><td style="font-weight:bold;vertical-align:top;">domain</td><td style="vertical-align:top;">:</td><td><div></div></td></tr><tr><td style="font-weight:bold;vertical-align:top;">expires</td><td style="vertical-align:top;">:</td><td><div></div></td></tr><tr><td style="font-weight:bold;vertical-align:top;">httponly</td><td style="vertical-align:top;">:</td><td><div></div></td></tr><tr><td style="font-weight:bold;vertical-align:top;">max-age</td><td style="vertical-align:top;">:</td><td><div></div></td></tr><tr><td style="font-weight:bold;vertical-align:top;">path</td><td style="vertical-align:top;">:</td><td><div></div></td></tr><tr><td style="font-weight:bold;vertical-align:top;">secure</td><td style="vertical-align:top;">:</td><td><div></div></td></tr><tr><td style="font-weight:bold;vertical-align:top;">version</td><td style="vertical-align:top;">:</td><td><div></div></td></tr></table></div></td></tr></table></div></td></tr><tr><td style="font-weight:bold;vertical-align:top;">env</td><td style="vertical-align:top;">:</td><td><div><table><tr><td style="font-weight:bold;vertical-align:top;">HTTP_ACCEPT</td><td style="vertical-align:top;">:</td><td><div>*/*</div></td></tr><tr><td style="font-weight:bold;vertical-align:top;">HTTP_ACCEPT_ENCODING</td><td style="vertical-align:top;">:</td><td><div>gzip, deflate</div></td></tr><tr><td style="font-weight:bold;vertical-align:top;">HTTP_ACCEPT_LANGUAGE</td><td style="vertical-align:top;">:</td><td><div>en-GB,en;q=0.5</div></td></tr><tr><td style="font-weight:bold;vertical-align:top;">HTTP_CONNECTION</td><td style="vertical-align:top;">:</td><td><div>Keep-Alive</div></td></tr><tr><td style="font-weight:bold;vertical-align:top;">HTTP_COOKIE</td><td style="vertical-align:top;">:</td><td><div>session_id_welcome=127.0.0.1-fadc108f-8ae6-4ef9-96d1-84e3d6ffce5a; session_id_admin=127.0.0.1-d9c06f2e-2b14-485a-ace9-f23fca21aa8d; session_id_commodity=127.0.0.1-9f009b95-8f77-43a9-a441-8d7065c93c6d</div></td></tr><tr><td style="font-weight:bold;vertical-align:top;">HTTP_HOST</td><td style="vertical-align:top;">:</td><td><div>127.0.0.1:8000</div></td></tr><tr><td style="font-weight:bold;vertical-align:top;">HTTP_REFERER</td><td style="vertical-align:top;">:</td><td><div>http://127.0.0.1:8000/admin/default/edit/Commodity/models/db1.py?id=models__db1__py</div></td></tr><tr><td style="font-weight:bold;vertical-align:top;">HTTP_USER_AGENT</td><td style="vertical-align:top;">:</td><td><div>Mozilla/5.0 (Windows NT 10.0; Win64; x64) AppleWebKit/537.36 (KHTML, like Gecko) Chrome/52.0.2743.116 Safari/537.36 Edge/15.15063</div></td></tr><tr><td style="font-weight:bold;vertical-align:top;">HTTP_WEB2PY_COMPONENT_ELEMENT</td><td style="vertical-align:top;">:</td><td><div>c441416873081</div></td></tr><tr><td style="font-weight:bold;vertical-align:top;">HTTP_WEB2PY_COMPONENT_LOCATION</td><td style="vertical-align:top;">:</td><td><div>http://127.0.0.1:8000/admin/default/edit/Commodity/models/db1.py?id=models__db1__py</div></td></tr><tr><td style="font-weight:bold;vertical-align:top;">HTTP_X_REQUESTED_WITH</td><td style="vertical-align:top;">:</td><td><div>XMLHttpRequest</div></td></tr><tr><td style="font-weight:bold;vertical-align:top;">PATH_INFO</td><td style="vertical-align:top;">:</td><td><div>/Commodity/appadmin/hooks</div></td></tr><tr><td style="font-weight:bold;vertical-align:top;">QUERY_STRING</td><td style="vertical-align:top;">:</td><td><div></div></td></tr><tr><td style="font-weight:bold;vertical-align:top;">REMOTE_ADDR</td><td style="vertical-align:top;">:</td><td><div>127.0.0.1</div></td></tr><tr><td style="font-weight:bold;vertical-align:top;">REMOTE_PORT</td><td style="vertical-align:top;">:</td><td><div>53413</div></td></tr><tr><td style="font-weight:bold;vertical-align:top;">REQUEST_METHOD</td><td style="vertical-align:top;">:</td><td><div>GET</div></td></tr><tr><td style="font-weight:bold;vertical-align:top;">SCRIPT_NAME</td><td style="vertical-align:top;">:</td><td><div></div></td></tr><tr><td style="font-weight:bold;vertical-align:top;">SERVER_NAME</td><td style="vertical-align:top;">:</td><td><div>Rob-Desktop</div></td></tr><tr><td style="font-weight:bold;vertical-align:top;">SERVER_PORT</td><td style="vertical-align:top;">:</td><td><div>8000</div></td></tr><tr><td style="font-weight:bold;vertical-align:top;">SERVER_PROTOCOL</td><td style="vertical-align:top;">:</td><td><div>HTTP/1.1</div></td></tr><tr><td style="font-weight:bold;vertical-align:top;">SERVER_SOFTWARE</td><td style="vertical-align:top;">:</td><td><div>Rocket 1.2.6</div></td></tr><tr><td style="font-weight:bold;vertical-align:top;">app_folders</td><td style="vertical-align:top;">:</td><td><div>set([&#x27;C:\\\\Users\\\\robta\\\\OneDrive\\\\Documents\\\\GitHub\\\\Commodity\\\\applications\\\\admin\\\\&#x27;, &#x27;C:\\\\Users\\\\robta\\\\OneDrive\\\\Documents\\\\GitHub\\\\Commodity\\\\applications\\\\welcome\\\\&#x27;, &#x27;C:\\\\Users\\\\robta\\\\OneDrive\\\\Documents\\\\GitHub\\\\Commodity\\\\applications\\\\Commodity\\\\&#x27;])</div></td></tr><tr><td style="font-weight:bold;vertical-align:top;">applications_parent</td><td style="vertical-align:top;">:</td><td><div>C:\\Users\\robta\\OneDrive\\Documents\\GitHub\\Commodity</div></td></tr><tr><td style="font-weight:bold;vertical-align:top;">cmd_args</td><td style="vertical-align:top;">:</td><td><div><table></table></div></td></tr><tr><td style="font-weight:bold;vertical-align:top;">cmd_options</td><td style="vertical-align:top;">:</td><td><div>&lt;Values at 0x3b42cd8: {&#x27;verbose&#x27;: False, &#x27;ip&#x27;: &#x27;127.0.0.1&#x27;, &#x27;debuglevel&#x27;: 30, &#x27;with_scheduler&#x27;: False, &#x27;shutdown_timeout&#x27;: 5, &#x27;taskbar&#x27;: False, &#x27;with_coverage&#x27;: False, &#x27;pid_filename&#x27;: &#x27;httpserver.pid&#x27;, &#x27;maxthreads&#x27;: None, &#x27;softcron&#x27;: False, &#x27;server_name&#x27;: &#x27;Rob-Desktop&#x27;, &#x27;bpython&#x27;: False, &#x27;nogui&#x27;: False, &#x27;port&#x27;: 8000, &#x27;print_errors&#x27;: False, &#x27;extcron&#x27;: False, &#x27;runcron&#x27;: False, &#x27;run_system_tests&#x27;: False, &#x27;test&#x27;: None, &#x27;folder&#x27;: &#x27;C:\\\\Users\\\\robta\\\\OneDrive\\\\Documents\\\\GitHub\\\\Commodity&#x27;, &#x27;config&#x27;: &#x27;&#x27;, &#x27;minthreads&#x27;: None, &#x27;shell&#x27;: None, &#x27;run&#x27;: &#x27;&#x27;, &#x27;log_filename&#x27;: &#x27;httpserver.log&#x27;, &#x27;profiler_dir&#x27;: None, &#x27;args&#x27;: [&#x27;&#x27;], &#x27;socket_timeout&#x27;: 5, &#x27;ssl_ca_certificate&#x27;: None, &#x27;scheduler&#x27;: None, &#x27;interfaces&#x27;: None, &#x27;ssl_private_key&#x27;: &#x27;&#x27;, &#x27;gae&#x27;: None, &#x27;password&#x27;: &#x27;******&#x27;, &#x27;request_queue_size&#x27;: 5, &#x27;ssl_certificate&#x27;: &#x27;&#x27;, &#x27;cronjob&#x27;: False, &#x27;numthreads&#x27;: None, &#x27;quiet&#x27;: False, &#x27;import_models&#x27;: False, &#x27;timeout&#x27;: 10, &#x27;plain&#x27;: False, &#x27;nobanner&#x27;: False}&gt;</div></td></tr><tr><td style="font-weight:bold;vertical-align:top;">db_sessions</td><td style="vertical-align:top;">:</td><td><div>set([])</div></td></tr><tr><td style="font-weight:bold;vertical-align:top;">debugging</td><td style="vertical-align:top;">:</td><td><div>False</div></td></tr><tr><td style="font-weight:bold;vertical-align:top;">gluon_parent</td><td style="vertical-align:top;">:</td><td><div>C:\\Users\\robta\\OneDrive\\Documents\\GitHub\\Commodity</div></td></tr><tr><td style="font-weight:bold;vertical-align:top;">http_accept</td><td style="vertical-align:top;">:</td><td><div>*/*</div></td></tr><tr><td style="font-weight:bold;vertical-align:top;">http_accept_encoding</td><td style="vertical-align:top;">:</td><td><div>gzip, deflate</div></td></tr><tr><td style="font-weight:bold;vertical-align:top;">http_accept_language</td><td style="vertical-align:top;">:</td><td><div>en-GB,en;q=0.5</div></td></tr><tr><td style="font-weight:bold;vertical-align:top;">http_connection</td><td style="vertical-align:top;">:</td><td><div>Keep-Alive</div></td></tr><tr><td style="font-weight:bold;vertical-align:top;">http_cookie</td><td style="vertical-align:top;">:</td><td><div>session_id_welcome=127.0.0.1-fadc108f-8ae6-4ef9-96d1-84e3d6ffce5a; session_id_admin=127.0.0.1-d9c06f2e-2b14-485a-ace9-f23fca21aa8d; session_id_commodity=127.0.0.1-9f009b95-8f77-43a9-a441-8d7065c93c6d</div></td></tr><tr><td style="font-weight:bold;vertical-align:top;">http_host</td><td style="vertical-align:top;">:</td><td><div>127.0.0.1:8000</div></td></tr><tr><td style="font-weight:bold;vertical-align:top;">http_referer</td><td style="vertical-align:top;">:</td><td><div>http://127.0.0.1:8000/admin/default/edit/Commodity/models/db1.py?id=models__db1__py</div></td></tr><tr><td style="font-weight:bold;vertical-align:top;">http_user_agent</td><td style="vertical-align:top;">:</td><td><div>Mozilla/5.0 (Windows NT 10.0; Win64; x64) AppleWebKit/537.36 (KHTML, like Gecko) Chrome/52.0.2743.116 Safari/537.36 Edge/15.15063</div></td></tr><tr><td style="font-weight:bold;vertical-align:top;">http_web2py_component_element</td><td style="vertical-align:top;">:</td><td><div>c441416873081</div></td></tr><tr><td style="font-weight:bold;vertical-align:top;">http_web2py_component_location</td><td style="vertical-align:top;">:</td><td><div>http://127.0.0.1:8000/admin/default/edit/Commodity/models/db1.py?id=models__db1__py</div></td></tr><tr><td style="font-weight:bold;vertical-align:top;">http_x_requested_with</td><td style="vertical-align:top;">:</td><td><div>XMLHttpRequest</div></td></tr><tr><td style="font-weight:bold;vertical-align:top;">is_jython</td><td style="vertical-align:top;">:</td><td><div>False</div></td></tr><tr><td style="font-weight:bold;vertical-align:top;">is_pypy</td><td style="vertical-align:top;">:</td><td><div>False</div></td></tr><tr><td style="font-weight:bold;vertical-align:top;">is_source</td><td style="vertical-align:top;">:</td><td><div>False</div></td></tr><tr><td style="font-weight:bold;vertical-align:top;">local_hosts</td><td style="vertical-align:top;">:</td><td><div><table><tr><td><div>fe80::3094:3b00:3f57:feeb%12</div></td></tr><tr><td><div>fe80::f1bb:9b12:cd8f:bc48%10</div></td></tr><tr><td><div>192.168.1.20</div></td></tr><tr><td><div>2001:0:4137:9e76:3094:3b00:3f57:feeb</div></td></tr><tr><td><div>::ffff:127.0.0.1</div></td></tr><tr><td><div>::1</div></td></tr><tr><td><div>Rob-Desktop</div></td></tr><tr><td><div>127.0.0.1</div></td></tr></table></div></td></tr><tr><td style="font-weight:bold;vertical-align:top;">path_info</td><td style="vertical-align:top;">:</td><td><div>/Commodity/appadmin/hooks</div></td></tr><tr><td style="font-weight:bold;vertical-align:top;">query_string</td><td style="vertical-align:top;">:</td><td><div></div></td></tr><tr><td style="font-weight:bold;vertical-align:top;">remote_addr</td><td style="vertical-align:top;">:</td><td><div>127.0.0.1</div></td></tr><tr><td style="font-weight:bold;vertical-align:top;">remote_port</td><td style="vertical-align:top;">:</td><td><div>53413</div></td></tr><tr><td style="font-weight:bold;vertical-align:top;">request_method</td><td style="vertical-align:top;">:</td><td><div>GET</div></td></tr><tr><td style="font-weight:bold;vertical-align:top;">request_uri</td><td style="vertical-align:top;">:</td><td><div>/Commodity/appadmin/hooks</div></td></tr><tr><td style="font-weight:bold;vertical-align:top;">script_name</td><td style="vertical-align:top;">:</td><td><div></div></td></tr><tr><td style="font-weight:bold;vertical-align:top;">server_name</td><td style="vertical-align:top;">:</td><td><div>Rob-Desktop</div></td></tr><tr><td style="font-weight:bold;vertical-align:top;">server_port</td><td style="vertical-align:top;">:</td><td><div>8000</div></td></tr><tr><td style="font-weight:bold;vertical-align:top;">server_protocol</td><td style="vertical-align:top;">:</td><td><div>HTTP/1.1</div></td></tr><tr><td style="font-weight:bold;vertical-align:top;">server_software</td><td style="vertical-align:top;">:</td><td><div>Rocket 1.2.6</div></td></tr><tr><td style="font-weight:bold;vertical-align:top;">web2py_path</td><td style="vertical-align:top;">:</td><td><div>C:\\Users\\robta\\OneDrive\\Documents\\GitHub\\Commodity</div></td></tr><tr><td style="font-weight:bold;vertical-align:top;">web2py_version</td><td style="vertical-align:top;">:</td><td><div>2.14.6-stable+timestamp.2016.05.10.00.21.47</div></td></tr><tr><td style="font-weight:bold;vertical-align:top;">wsgi.errors</td><td style="vertical-align:top;">:</td><td><div>&lt;open file &#x27;&lt;stderr&gt;&#x27;, mode &#x27;w&#x27; at 0x0228D0D0&gt;</div></td></tr><tr><td style="font-weight:bold;vertical-align:top;">wsgi.file_wrapper</td><td style="vertical-align:top;">:</td><td><div>&lt;class wsgiref.util.FileWrapper at 0x02F96110&gt;</div></td></tr><tr><td style="font-weight:bold;vertical-align:top;">wsgi.input</td><td style="vertical-align:top;">:</td><td><div>&lt;socket._fileobject object at 0x043CF7F0&gt;</div></td></tr><tr><td style="font-weight:bold;vertical-align:top;">wsgi.multiprocess</td><td style="vertical-align:top;">:</td><td><div>False</div></td></tr><tr><td style="font-weight:bold;vertical-align:top;">wsgi.multithread</td><td style="vertical-align:top;">:</td><td><div>True</div></td></tr><tr><td style="font-weight:bold;vertical-align:top;">wsgi.run_once</td><td style="vertical-align:top;">:</td><td><div>False</div></td></tr><tr><td style="font-weight:bold;vertical-align:top;">wsgi.url_scheme</td><td style="vertical-align:top;">:</td><td><div>http</div></td></tr><tr><td style="font-weight:bold;vertical-align:top;">wsgi.version</td><td style="vertical-align:top;">:</td><td><div><table><tr><td><div>1</div></td></tr><tr><td><div>0</div></td></tr></table></div></td></tr><tr><td style="font-weight:bold;vertical-align:top;">wsgi_errors</td><td style="vertical-align:top;">:</td><td><div>&lt;open file &#x27;&lt;stderr&gt;&#x27;, mode &#x27;w&#x27; at 0x0228D0D0&gt;</div></td></tr><tr><td style="font-weight:bold;vertical-align:top;">wsgi_file_wrapper</td><td style="vertical-align:top;">:</td><td><div>&lt;class wsgiref.util.FileWrapper at 0x02F96110&gt;</div></td></tr><tr><td style="font-weight:bold;vertical-align:top;">wsgi_input</td><td style="vertical-align:top;">:</td><td><div>&lt;socket._fileobject object at 0x043CF7F0&gt;</div></td></tr><tr><td style="font-weight:bold;vertical-align:top;">wsgi_multiprocess</td><td style="vertical-align:top;">:</td><td><div>False</div></td></tr><tr><td style="font-weight:bold;vertical-align:top;">wsgi_multithread</td><td style="vertical-align:top;">:</td><td><div>True</div></td></tr><tr><td style="font-weight:bold;vertical-align:top;">wsgi_run_once</td><td style="vertical-align:top;">:</td><td><div>False</div></td></tr><tr><td style="font-weight:bold;vertical-align:top;">wsgi_url_scheme</td><td style="vertical-align:top;">:</td><td><div>http</div></td></tr><tr><td style="font-weight:bold;vertical-align:top;">wsgi_version</td><td style="vertical-align:top;">:</td><td><div><table><tr><td><div>1</div></td></tr><tr><td><div>0</div></td></tr></table></div></td></tr></table></div></td></tr><tr><td style="font-weight:bold;vertical-align:top;">extension</td><td style="vertical-align:top;">:</td><td><div>html</div></td></tr><tr><td style="font-weight:bold;vertical-align:top;">folder</td><td style="vertical-align:top;">:</td><td><div>C:\\Users\\robta\\OneDrive\\Documents\\GitHub\\Commodity\\applications\\Commodity\\</div></td></tr><tr><td style="font-weight:bold;vertical-align:top;">function</td><td style="vertical-align:top;">:</td><td><div>hooks</div></td></tr><tr><td style="font-weight:bold;vertical-align:top;">global_settings</td><td style="vertical-align:top;">:</td><td><div><table><tr><td style="font-weight:bold;vertical-align:top;">app_folders</td><td style="vertical-align:top;">:</td><td><div>set([&#x27;C:\\\\Users\\\\robta\\\\OneDrive\\\\Documents\\\\GitHub\\\\Commodity\\\\applications\\\\admin\\\\&#x27;, &#x27;C:\\\\Users\\\\robta\\\\OneDrive\\\\Documents\\\\GitHub\\\\Commodity\\\\applications\\\\welcome\\\\&#x27;, &#x27;C:\\\\Users\\\\robta\\\\OneDrive\\\\Documents\\\\GitHub\\\\Commodity\\\\applications\\\\Commodity\\\\&#x27;])</div></td></tr><tr><td style="font-weight:bold;vertical-align:top;">applications_parent</td><td style="vertical-align:top;">:</td><td><div>C:\\Users\\robta\\OneDrive\\Documents\\GitHub\\Commodity</div></td></tr><tr><td style="font-weight:bold;vertical-align:top;">cmd_args</td><td style="vertical-align:top;">:</td><td><div><table></table></div></td></tr><tr><td style="font-weight:bold;vertical-align:top;">cmd_options</td><td style="vertical-align:top;">:</td><td><div>&lt;Values at 0x3b42cd8: {&#x27;verbose&#x27;: False, &#x27;ip&#x27;: &#x27;127.0.0.1&#x27;, &#x27;debuglevel&#x27;: 30, &#x27;with_scheduler&#x27;: False, &#x27;shutdown_timeout&#x27;: 5, &#x27;taskbar&#x27;: False, &#x27;with_coverage&#x27;: False, &#x27;pid_filename&#x27;: &#x27;httpserver.pid&#x27;, &#x27;maxthreads&#x27;: None, &#x27;softcron&#x27;: False, &#x27;server_name&#x27;: &#x27;Rob-Desktop&#x27;, &#x27;bpython&#x27;: False, &#x27;nogui&#x27;: False, &#x27;port&#x27;: 8000, &#x27;print_errors&#x27;: False, &#x27;extcron&#x27;: False, &#x27;runcron&#x27;: False, &#x27;run_system_tests&#x27;: False, &#x27;test&#x27;: None, &#x27;folder&#x27;: &#x27;C:\\\\Users\\\\robta\\\\OneDrive\\\\Documents\\\\GitHub\\\\Commodity&#x27;, &#x27;config&#x27;: &#x27;&#x27;, &#x27;minthreads&#x27;: None, &#x27;shell&#x27;: None, &#x27;run&#x27;: &#x27;&#x27;, &#x27;log_filename&#x27;: &#x27;httpserver.log&#x27;, &#x27;profiler_dir&#x27;: None, &#x27;args&#x27;: [&#x27;&#x27;], &#x27;socket_timeout&#x27;: 5, &#x27;ssl_ca_certificate&#x27;: None, &#x27;scheduler&#x27;: None, &#x27;interfaces&#x27;: None, &#x27;ssl_private_key&#x27;: &#x27;&#x27;, &#x27;gae&#x27;: None, &#x27;password&#x27;: &#x27;******&#x27;, &#x27;request_queue_size&#x27;: 5, &#x27;ssl_certificate&#x27;: &#x27;&#x27;, &#x27;cronjob&#x27;: False, &#x27;numthreads&#x27;: None, &#x27;quiet&#x27;: False, &#x27;import_models&#x27;: False, &#x27;timeout&#x27;: 10, &#x27;plain&#x27;: False, &#x27;nobanner&#x27;: False}&gt;</div></td></tr><tr><td style="font-weight:bold;vertical-align:top;">db_sessions</td><td style="vertical-align:top;">:</td><td><div>set([])</div></td></tr><tr><td style="font-weight:bold;vertical-align:top;">debugging</td><td style="vertical-align:top;">:</td><td><div>False</div></td></tr><tr><td style="font-weight:bold;vertical-align:top;">gluon_parent</td><td style="vertical-align:top;">:</td><td><div>C:\\Users\\robta\\OneDrive\\Documents\\GitHub\\Commodity</div></td></tr><tr><td style="font-weight:bold;vertical-align:top;">is_jython</td><td style="vertical-align:top;">:</td><td><div>False</div></td></tr><tr><td style="font-weight:bold;vertical-align:top;">is_pypy</td><td style="vertical-align:top;">:</td><td><div>False</div></td></tr><tr><td style="font-weight:bold;vertical-align:top;">is_source</td><td style="vertical-align:top;">:</td><td><div>False</div></td></tr><tr><td style="font-weight:bold;vertical-align:top;">local_hosts</td><td style="vertical-align:top;">:</td><td><div><table><tr><td><div>fe80::3094:3b00:3f57:feeb%12</div></td></tr><tr><td><div>fe80::f1bb:9b12:cd8f:bc48%10</div></td></tr><tr><td><div>192.168.1.20</div></td></tr><tr><td><div>2001:0:4137:9e76:3094:3b00:3f57:feeb</div></td></tr><tr><td><div>::ffff:127.0.0.1</div></td></tr><tr><td><div>::1</div></td></tr><tr><td><div>Rob-Desktop</div></td></tr><tr><td><div>127.0.0.1</div></td></tr></table></div></td></tr><tr><td style="font-weight:bold;vertical-align:top;">web2py_version</td><td style="vertical-align:top;">:</td><td><div>2.14.6-stable+timestamp.2016.05.10.00.21.47</div></td></tr></table></div></td></tr><tr><td style="font-weight:bold;vertical-align:top;">is_https</td><td style="vertical-align:top;">:</td><td><div>False</div></td></tr><tr><td style="font-weight:bold;vertical-align:top;">is_local</td><td style="vertical-align:top;">:</td><td><div>True</div></td></tr><tr><td style="font-weight:bold;vertical-align:top;">is_restful</td><td style="vertical-align:top;">:</td><td><div>False</div></td></tr><tr><td style="font-weight:bold;vertical-align:top;">is_scheduler</td><td style="vertical-align:top;">:</td><td><div>False</div></td></tr><tr><td style="font-weight:bold;vertical-align:top;">is_shell</td><td style="vertical-align:top;">:</td><td><div>False</div></td></tr><tr><td style="font-weight:bold;vertical-align:top;">now</td><td style="vertical-align:top;">:</td><td><div>datetime.datetime(2017, 4, 27, 15, 8, 35, 202000)</div></td></tr><tr><td style="font-weight:bold;vertical-align:top;">raw_args</td><td style="vertical-align:top;">:</td><td><div></div></td></tr><tr><td style="font-weight:bold;vertical-align:top;">raw_extension</td><td style="vertical-align:top;">:</td><td><div>None</div></td></tr><tr><td style="font-weight:bold;vertical-align:top;">url</td><td style="vertical-align:top;">:</td><td><div>/Commodity/appadmin/hooks</div></td></tr><tr><td style="font-weight:bold;vertical-align:top;">utcnow</td><td style="vertical-align:top;">:</td><td><div>datetime.datetime(2017, 4, 27, 14, 8, 35, 202000)</div></td></tr><tr><td style="font-weight:bold;vertical-align:top;">wsgi</td><td style="vertical-align:top;">:</td><td><div>&lt;gluon.main.LazyWSGI object at 0x043D6810&gt;</div></td></tr></table></div>'
tRp64
sS'frames'
p65
(lp66
(dp67
S'file'
p68
S'C:\\Users\\robta\\OneDrive\\Documents\\GitHub\\Commodity\\gluon\\restricted.py'
p69
sS'dump'
p70
(dp71
S'environment'
p72
S"{'A': <class 'gluon.html.A'>, 'ANY_OF': <class 'gluon.validators.ANY_OF'>, 'ASSIGNJS': <function ASSIGNJS>, 'AppConfig': <function AppConfig>, 'Auth': <class 'gluon.tools.Auth'>, 'B': <class 'gluon.html.B'>, 'BEAUTIFY': <class 'gluon.html.BEAUTIFY'>, 'BODY': <class 'gluon.html.BODY'>, 'BR': <class 'gluon.html.BR'>, 'BUTTON': <class 'gluon.html.BUTTON'>, ...}"
p73
sS'ccode'
p74
S'<code object <module> at 043C7A40, file "C:\\User...ty\\applications\\Commodity\\models\\db1.py", line 2>'
p75
ssS'lnum'
p76
I227
sS'lines'
p77
(dp78
I224
S'            ccode = code'
p79
sI225
S'        else:'
p80
sI226
S'            ccode = compile2(code, layer)'
p81
sI227
S'        exec ccode in environment'
p82
sI228
S'    except HTTP:'
p83
sI229
S'        raise'
p84
sI230
S'    except RestrictedError:'
p85
sI231
S'        # do not encapsulate (obfuscate) the original RestrictedError'
p86
sI222
S'    try:'
p87
sI223
S'        if isinstance(code, types.CodeType):'
p88
ssS'call'
p89
S'(code="# -*- coding: utf-8 -*-\\ndb.define_table(\'product...lers\',requires=IS_NOT_EMPTY())\\n                )\\n", environment={\'A\': <class \'gluon.html.A\'>, \'ANY_OF\': <class \'gluon.validators.ANY_OF\'>, \'ASSIGNJS\': <function ASSIGNJS>, \'AppConfig\': <function AppConfig>, \'Auth\': <class \'gluon.tools.Auth\'>, \'B\': <class \'gluon.html.B\'>, \'BEAUTIFY\': <class \'gluon.html.BEAUTIFY\'>, \'BODY\': <class \'gluon.html.BODY\'>, \'BR\': <class \'gluon.html.BR\'>, \'BUTTON\': <class \'gluon.html.BUTTON\'>, ...}, layer=r\'C:\\Users\\robta\\OneDrive\\Documents\\GitHub\\Commodity\\applications\\Commodity\\models\\db1.py\')'
p90
sS'func'
p91
S'restricted'
p92
sa(dp93
g68
S'C:\\Users\\robta\\OneDrive\\Documents\\GitHub\\Commodity\\applications\\Commodity\\models\\db1.py'
p94
sg70
(dp95
S'IS_NOT_EMPTY'
p96
S"<class 'gluon.validators.IS_NOT_EMPTY'>"
p97
sS'Field'
p98
S"<class 'pydal.objects.Field'>"
p99
sS'requires'
p100
S'undefined'
p101
ssg76
I28
sg77
(dp102
I20
S''
sI21
S"db.define_table('retailers',"
p103
sI22
S"                Field('retailer_name',requires=IS_NOT_EMPTY()),"
p104
sI23
S"                Field('retailer_website',requires=IS_NOT_EMPTY())"
p105
sI24
S'                )'
p106
sI25
S''
sI26
S"db.define_table('product_retail_link',"
p107
sI27
S"                Field('id','reference products',requires=IS_NOT_EMPTY()),"
p108
sI28
S"                Field('id','reference retailers',requires=IS_NOT_EMPTY())"
p109
sI29
S'                )'
p110
ssg89
S'()'
p111
sg91
S'<module>'
p112
sa(dp113
g68
S'C:\\Users\\robta\\OneDrive\\Documents\\GitHub\\Commodity\\gluon\\packages\\dal\\pydal\\base.py'
p114
sg70
(dp115
S'fields'
p116
S'(<pydal.objects.Field object>, <pydal.objects.Field object>)'
p117
sS'self'
p118
S'<DAL uri="sqlite://storage.sqlite">'
p119
sS'args'
p120
g19
sS'tablename'
p121
S"'product_retail_link'"
p122
sS'table'
p123
g101
sS'self.lazy_define_table'
p124
S'<bound method DAL.lazy_define_table of <DAL uri="sqlite://storage.sqlite">>'
p125
ssg76
I834
sg77
(dp126
I832
S'            table = None'
p127
sI833
S'        else:'
p128
sI834
S'            table = self.lazy_define_table(tablename,*fields,**args)'
p129
sI835
S'        if not tablename in self.tables:'
p130
sI836
S'            self.tables.append(tablename)'
p131
sI837
S'        return table'
p132
sI838
S''
sI829
S'                    % (tablename,invalid_args))'
p133
sI830
S'        if self._lazy_tables and tablename not in self._LAZY_TABLES:'
p134
sI831
S'            self._LAZY_TABLES[tablename] = (tablename,fields,args)'
p135
ssg89
S'(self=<DAL uri="sqlite://storage.sqlite">, tablename=\'product_retail_link\', *fields=(<pydal.objects.Field object>, <pydal.objects.Field object>), **args={})'
p136
sg91
S'define_table'
p137
sa(dp138
g68
S'C:\\Users\\robta\\OneDrive\\Documents\\GitHub\\Commodity\\gluon\\packages\\dal\\pydal\\base.py'
p139
sg70
(dp140
S'polymodel'
p141
S'None'
p142
ssg76
I873
sg77
(dp143
I868
S'            try:'
p144
sI869
S'                GLOBAL_LOCKER.acquire()'
p145
sI870
S'                self._lastsql = self._adapter.create_table('
p146
sI871
S'                    table,migrate=migrate,'
p147
sI872
S'                    fake_migrate=fake_migrate,'
p148
sI873
S'                    polymodel=polymodel)'
p149
sI874
S'            finally:'
p150
sI875
S'                GLOBAL_LOCKER.release()'
p151
sI876
S'        else:'
p152
sI877
S'            table._dbt = None'
p153
ssg89
S'(self=<DAL uri="sqlite://storage.sqlite">, tablename=\'product_retail_link\', *fields=(<pydal.objects.Field object>, <pydal.objects.Field object>), **args={})'
p154
sg91
S'lazy_define_table'
p155
sa(dp156
g68
S'C:\\Users\\robta\\OneDrive\\Documents\\GitHub\\Commodity\\gluon\\packages\\dal\\pydal\\adapters\\base.py'
p157
sg70
(dp158
S'fake_migrate'
p159
S'False'
p160
ssg76
I510
sg77
(dp161
I512
S'        return query'
p162
sI513
S''
sI514
S'    def migrate_table('
p163
sI505
S'            if sql_fields != sql_fields_old:'
p164
sI506
S'                self.migrate_table('
p165
sI507
S'                    table,'
p166
sI508
S'                    sql_fields, sql_fields_old,'
p167
sI509
S'                    sql_fields_aux, None,'
p168
sI510
S'                    fake_migrate=fake_migrate'
p169
sI511
S'                    )'
p170
ssg89
S'(self=<pydal.adapters.sqlite.SQLiteAdapter object>, table=<Table product_retail_link (id)>, migrate=True, fake_migrate=False, polymodel=None)'
p171
sg91
S'create_table'
p172
sa(dp173
g68
S'C:\\Users\\robta\\OneDrive\\Documents\\GitHub\\Commodity\\gluon\\packages\\dal\\pydal\\adapters\\base.py'
p174
sg70
(dp175
S'self.save_dbt'
p176
S'<bound method SQLiteAdapter.save_dbt of <pydal.adapters.sqlite.SQLiteAdapter object>>'
p177
sS'self'
p178
S'<pydal.adapters.sqlite.SQLiteAdapter object>'
p179
sS'sql_fields_current'
p180
S"{'id': {'length': 512, 'notnull': False, 'sortable': 1, 'sql': 'INTEGER PRIMARY KEY AUTOINCREMENT', 'type': 'id', 'unique': False}, 'product_id': {'length': 512L, 'notnull': 0L, 'sortable': 2L, 'sql': 'INTEGER REFERENCES products (id) ON DELETE CASCADE  ', 'type': 'reference products', 'unique': 0L}, 'retailer_id': {'length': 512L, 'notnull': 0L, 'sortable': 3L, 'sql': 'INTEGER REFERENCES retailers (id) ON DELETE CASCADE  ', 'type': 'reference retailers', 'unique': 0L}}"
p181
sS'table'
p182
S'<Table product_retail_link (id)>'
p183
ssg76
I635
sg77
(dp184
I630
S'                            db.commit()'
p185
sI631
S'                            self.save_dbt(table,sql_fields_current)'
p186
sI632
S"                            self.log('success!\\n', table)"
p187
sI633
S''
sI634
S'            elif metadata_change:'
p188
sI635
S'                self.save_dbt(table,sql_fields_current)'
p189
sI636
S''
sI637
S'        if metadata_change and not (query and db._adapter.commit_on_alter_table):'
p190
sI638
S'            db.commit()'
p191
sI639
S'            self.save_dbt(table,sql_fields_current)'
p192
ssg89
S"(self=<pydal.adapters.sqlite.SQLiteAdapter object>, table=<Table product_retail_link (id)>, sql_fields={'id': {'length': 512, 'notnull': False, 'sortable': 1, 'sql': 'INTEGER PRIMARY KEY AUTOINCREMENT', 'type': 'id', 'unique': False}}, sql_fields_old={'id': {'length': 512, 'notnull': False, 'sortable': 1, 'sql': 'INTEGER PRIMARY KEY AUTOINCREMENT', 'type': 'id', 'unique': False}, 'product_id': {'length': 512L, 'notnull': 0L, 'sortable': 2L, 'sql': 'INTEGER REFERENCES products (id) ON DELETE CASCADE  ', 'type': 'reference products', 'unique': 0L}, 'retailer_id': {'length': 512L, 'notnull': 0L, 'sortable': 3L, 'sql': 'INTEGER REFERENCES retailers (id) ON DELETE CASCADE  ', 'type': 'reference retailers', 'unique': 0L}}, sql_fields_aux={'id': {'sql': 'INTEGER PRIMARY KEY AUTOINCREMENT'}}, logfile=None, fake_migrate=False)"
p193
sg91
S'migrate_table'
p194
sa(dp195
g68
S'C:\\Users\\robta\\OneDrive\\Documents\\GitHub\\Commodity\\gluon\\packages\\dal\\pydal\\adapters\\base.py'
p196
sg70
(dp197
S'table'
p198
S'<Table product_retail_link (id)>'
p199
sS'self'
p200
S'<pydal.adapters.sqlite.SQLiteAdapter object>'
p201
sS'tfile'
p202
g101
sS'table._dbt'
p203
S"r'C:\\Users\\robta\\OneDrive\\Documents\\GitHub\\Commodi...150d7109e5f7ab36744a5b7_product_retail_link.table'"
p204
sS'self.file_open'
p205
S'<bound method SQLiteAdapter.file_open of <pydal.adapters.sqlite.SQLiteAdapter object>>'
p206
ssg76
I643
sg77
(dp207
I640
S"            self.log('success!\\n', table)"
p208
sI641
S''
sI642
S'    def save_dbt(self,table, sql_fields_current):'
p209
sI643
S"        tfile = self.file_open(table._dbt, 'wb')"
p210
sI644
S'        pickle.dump(sql_fields_current, tfile)'
p211
sI645
S'        self.file_close(tfile)'
p212
sI646
S''
sI647
S'    def LOWER(self, first):'
p213
sI638
S'            db.commit()'
p214
sI639
S'            self.save_dbt(table,sql_fields_current)'
p215
ssg89
S"(self=<pydal.adapters.sqlite.SQLiteAdapter object>, table=<Table product_retail_link (id)>, sql_fields_current={'id': {'length': 512, 'notnull': False, 'sortable': 1, 'sql': 'INTEGER PRIMARY KEY AUTOINCREMENT', 'type': 'id', 'unique': False}, 'product_id': {'length': 512L, 'notnull': 0L, 'sortable': 2L, 'sql': 'INTEGER REFERENCES products (id) ON DELETE CASCADE  ', 'type': 'reference products', 'unique': 0L}, 'retailer_id': {'length': 512L, 'notnull': 0L, 'sortable': 3L, 'sql': 'INTEGER REFERENCES retailers (id) ON DELETE CASCADE  ', 'type': 'reference retailers', 'unique': 0L}})"
p216
sg91
S'save_dbt'
p217
sa(dp218
g68
S'C:\\Users\\robta\\OneDrive\\Documents\\GitHub\\Commodity\\gluon\\packages\\dal\\pydal\\adapters\\base.py'
p219
sg70
(dp220
S'mode'
p221
S"'wb'"
p222
sS'portalocker.LockedFile'
p223
S"<class 'pydal.contrib.portalocker.LockedFile'>"
p224
sS'global portalocker'
p225
S"<module 'pydal.contrib.portalocker' from 'C:\\Use...gluon\\packages\\dal\\pydal\\contrib\\portalocker.py'>"
p226
sS'fileobj'
p227
g101
sS'filename'
p228
S"r'C:\\Users\\robta\\OneDrive\\Documents\\GitHub\\Commodi...150d7109e5f7ab36744a5b7_product_retail_link.table'"
p229
ssg76
I155
sg77
(dp230
I150
S'        return exists(filename)'
p231
sI151
S''
sI152
S"    def file_open(self, filename, mode='rb', lock=True):"
p232
sI153
S'        #to be used ONLY for files that on GAE may not be on filesystem'
p233
sI154
S'        if lock:'
p234
sI155
S'            fileobj = portalocker.LockedFile(filename,mode)'
p235
sI156
S'        else:'
p236
sI157
S'            fileobj = open(filename,mode)'
p237
sI158
S'        return fileobj'
p238
sI159
S''
ssg89
S"(self=<pydal.adapters.sqlite.SQLiteAdapter object>, filename=r'C:\\Users\\robta\\OneDrive\\Documents\\GitHub\\Commodi...150d7109e5f7ab36744a5b7_product_retail_link.table', mode='wb', lock=True)"
p239
sg91
S'file_open'
p240
sa(dp241
g68
S'C:\\Users\\robta\\OneDrive\\Documents\\GitHub\\Commodity\\gluon\\packages\\dal\\pydal\\contrib\\portalocker.py'
p242
sg70
(dp243
S'mode.replace'
p244
S'<built-in method replace of str object>'
p245
sS'self'
p246
S'<pydal.contrib.portalocker.LockedFile object>'
p247
sS'filename'
p248
S"r'C:\\Users\\robta\\OneDrive\\Documents\\GitHub\\Commodi...150d7109e5f7ab36744a5b7_product_retail_link.table'"
p249
sS'mode'
p250
S"'wb'"
p251
sS'self.file'
p252
S'None'
p253
sS'builtinopen'
p254
S'<built-in function open>'
p255
ssg76
I118
sg77
(dp256
I113
S'        self.file = None'
p257
sI114
S"        if 'r' in mode:"
p258
sI115
S'            self.file = open(filename, mode)'
p259
sI116
S'            lock(self.file, LOCK_SH)'
p260
sI117
S"        elif 'w' in mode or 'a' in mode:"
p261
sI118
S"            self.file = open(filename, mode.replace('w', 'a'))"
p262
sI119
S'            lock(self.file, LOCK_EX)'
p263
sI120
S"            if not 'a' in mode:"
p264
sI121
S'                self.file.seek(0)'
p265
sI122
S'                self.file.truncate(0)'
p266
ssg89
S"(self=<pydal.contrib.portalocker.LockedFile object>, filename=r'C:\\Users\\robta\\OneDrive\\Documents\\GitHub\\Commodi...150d7109e5f7ab36744a5b7_product_retail_link.table', mode='wb')"
p267
sg91
g22
sasS'pyver'
p268
S'Python 2.7.9: C:\\Users\\robta\\OneDrive\\Documents\\GitHub\\Commodity\\web2py.exe (prefix: )'
p269
sS'session'
p270
g63
(S's\x1a\x00\x00\x00<div><table></table></div>'
tRp271
sS'etype'
p272
S"<type 'exceptions.IOError'>"
p273
sS'date'
p274
S'Thu Apr 27 15:08:35 2017'
p275
sS'response'
p276
g63
(S's\xb5\x17\x00\x00<div><table><tr><td style="font-weight:bold;vertical-align:top;">body</td><td style="vertical-align:top;">:</td><td><div>&lt;cStringIO.StringO object at 0x043D6540&gt;</div></td></tr><tr><td style="font-weight:bold;vertical-align:top;">cookies</td><td style="vertical-align:top;">:</td><td><div><table><tr><td style="font-weight:bold;vertical-align:top;">session_id_commodity</td><td style="vertical-align:top;">:</td><td><div>127.0.0.1-9f009b95-8f77-43a9-a441-8d7065c93c6d<table><tr><td style="font-weight:bold;vertical-align:top;">comment</td><td style="vertical-align:top;">:</td><td><div></div></td></tr><tr><td style="font-weight:bold;vertical-align:top;">domain</td><td style="vertical-align:top;">:</td><td><div></div></td></tr><tr><td style="font-weight:bold;vertical-align:top;">expires</td><td style="vertical-align:top;">:</td><td><div></div></td></tr><tr><td style="font-weight:bold;vertical-align:top;">httponly</td><td style="vertical-align:top;">:</td><td><div></div></td></tr><tr><td style="font-weight:bold;vertical-align:top;">max-age</td><td style="vertical-align:top;">:</td><td><div></div></td></tr><tr><td style="font-weight:bold;vertical-align:top;">path</td><td style="vertical-align:top;">:</td><td><div>/</div></td></tr><tr><td style="font-weight:bold;vertical-align:top;">secure</td><td style="vertical-align:top;">:</td><td><div></div></td></tr><tr><td style="font-weight:bold;vertical-align:top;">version</td><td style="vertical-align:top;">:</td><td><div></div></td></tr></table></div></td></tr></table></div></td></tr><tr><td style="font-weight:bold;vertical-align:top;">delimiters</td><td style="vertical-align:top;">:</td><td><div><table><tr><td><div>{{</div></td></tr><tr><td><div>}}</div></td></tr></table></div></td></tr><tr><td style="font-weight:bold;vertical-align:top;">files</td><td style="vertical-align:top;">:</td><td><div><table></table></div></td></tr><tr><td style="font-weight:bold;vertical-align:top;">flash</td><td style="vertical-align:top;">:</td><td><div></div></td></tr><tr><td style="font-weight:bold;vertical-align:top;">form_label_separator</td><td style="vertical-align:top;">:</td><td><div></div></td></tr><tr><td style="font-weight:bold;vertical-align:top;">formstyle</td><td style="vertical-align:top;">:</td><td><div>bootstrap3_inline</div></td></tr><tr><td style="font-weight:bold;vertical-align:top;">generic_patterns</td><td style="vertical-align:top;">:</td><td><div><table><tr><td><div>*</div></td></tr></table></div></td></tr><tr><td style="font-weight:bold;vertical-align:top;">headers</td><td style="vertical-align:top;">:</td><td><div><table><tr><td style="font-weight:bold;vertical-align:top;">X-Powered-By</td><td style="vertical-align:top;">:</td><td><div>web2py</div></td></tr></table></div></td></tr><tr><td style="font-weight:bold;vertical-align:top;">menu</td><td style="vertical-align:top;">:</td><td><div><table></table></div></td></tr><tr><td style="font-weight:bold;vertical-align:top;">meta</td><td style="vertical-align:top;">:</td><td><div><table></table></div></td></tr><tr><td style="font-weight:bold;vertical-align:top;">models_to_run</td><td style="vertical-align:top;">:</td><td><div><table><tr><td><div>^\\w+\\.py$</div></td></tr><tr><td><div>^appadmin/\\w+\\.py$</div></td></tr><tr><td><div>^appadmin/hooks/\\w+\\.py$</div></td></tr></table></div></td></tr><tr><td style="font-weight:bold;vertical-align:top;">postprocessing</td><td style="vertical-align:top;">:</td><td><div><table></table></div></td></tr><tr><td style="font-weight:bold;vertical-align:top;">session_client</td><td style="vertical-align:top;">:</td><td><div>127.0.0.1</div></td></tr><tr><td style="font-weight:bold;vertical-align:top;">session_cookie_compression_level</td><td style="vertical-align:top;">:</td><td><div>None</div></td></tr><tr><td style="font-weight:bold;vertical-align:top;">session_cookie_expires</td><td style="vertical-align:top;">:</td><td><div>None</div></td></tr><tr><td style="font-weight:bold;vertical-align:top;">session_data_name</td><td style="vertical-align:top;">:</td><td><div>session_data_commodity</div></td></tr><tr><td style="font-weight:bold;vertical-align:top;">session_file</td><td style="vertical-align:top;">:</td><td><div>&lt;open file &#x27;C:\\\\Users\\\\robta\\\\OneDrive\\\\Documents\\\\GitHub\\\\Commodity\\\\applications\\\\Commodity\\\\sessions\\\\0dc\\\\1c3\\\\127.0.0.1-9f009b95-8f77-43a9-a441-8d7065c93c6d&#x27;, mode &#x27;rb+&#x27; at 0x03D5CD88&gt;</div></td></tr><tr><td style="font-weight:bold;vertical-align:top;">session_filename</td><td style="vertical-align:top;">:</td><td><div>C:\\Users\\robta\\OneDrive\\Documents\\GitHub\\Commodity\\applications\\Commodity\\sessions\\127.0.0.1-9f009b95-8f77-43a9-a441-8d7065c93c6d</div></td></tr><tr><td style="font-weight:bold;vertical-align:top;">session_hash</td><td style="vertical-align:top;">:</td><td><div>71d9af78fbbbeb66045044453a0e4ed5</div></td></tr><tr><td style="font-weight:bold;vertical-align:top;">session_id</td><td style="vertical-align:top;">:</td><td><div>127.0.0.1-9f009b95-8f77-43a9-a441-8d7065c93c6d</div></td></tr><tr><td style="font-weight:bold;vertical-align:top;">session_id_name</td><td style="vertical-align:top;">:</td><td><div>session_id_commodity</div></td></tr><tr><td style="font-weight:bold;vertical-align:top;">session_locked</td><td style="vertical-align:top;">:</td><td><div>True</div></td></tr><tr><td style="font-weight:bold;vertical-align:top;">session_masterapp</td><td style="vertical-align:top;">:</td><td><div>Commodity</div></td></tr><tr><td style="font-weight:bold;vertical-align:top;">session_new</td><td style="vertical-align:top;">:</td><td><div>False</div></td></tr><tr><td style="font-weight:bold;vertical-align:top;">session_storage_type</td><td style="vertical-align:top;">:</td><td><div>file</div></td></tr><tr><td style="font-weight:bold;vertical-align:top;">status</td><td style="vertical-align:top;">:</td><td><div>200</div></td></tr><tr><td style="font-weight:bold;vertical-align:top;">view</td><td style="vertical-align:top;">:</td><td><div>appadmin/hooks.html</div></td></tr></table></div>'
tRp277
sS'locals'
p278
(dp279
S'self'
p280
S'<pydal.contrib.portalocker.LockedFile object>'
p281
sS'mode'
p282
S"'wb'"
p283
sg36
S"r'C:\\Users\\robta\\OneDrive\\Documents\\GitHub\\Commodi...150d7109e5f7ab36744a5b7_product_retail_link.table'"
p284
sssS'traceback'
p285
S'Traceback (most recent call last):\n  File "C:\\Users\\robta\\OneDrive\\Documents\\GitHub\\Commodity\\gluon\\restricted.py", line 227, in restricted\n    exec ccode in environment\n  File "C:\\Users\\robta\\OneDrive\\Documents\\GitHub\\Commodity\\applications\\Commodity\\models\\db1.py", line 28, in <module>\n    Field(\'id\',\'reference retailers\',requires=IS_NOT_EMPTY())\n  File "C:\\Users\\robta\\OneDrive\\Documents\\GitHub\\Commodity\\gluon\\packages\\dal\\pydal\\base.py", line 834, in define_table\n    table = self.lazy_define_table(tablename,*fields,**args)\n  File "C:\\Users\\robta\\OneDrive\\Documents\\GitHub\\Commodity\\gluon\\packages\\dal\\pydal\\base.py", line 873, in lazy_define_table\n    polymodel=polymodel)\n  File "C:\\Users\\robta\\OneDrive\\Documents\\GitHub\\Commodity\\gluon\\packages\\dal\\pydal\\adapters\\base.py", line 510, in create_table\n    fake_migrate=fake_migrate\n  File "C:\\Users\\robta\\OneDrive\\Documents\\GitHub\\Commodity\\gluon\\packages\\dal\\pydal\\adapters\\base.py", line 635, in migrate_table\n    self.save_dbt(table,sql_fields_current)\n  File "C:\\Users\\robta\\OneDrive\\Documents\\GitHub\\Commodity\\gluon\\packages\\dal\\pydal\\adapters\\base.py", line 643, in save_dbt\n    tfile = self.file_open(table._dbt, \'wb\')\n  File "C:\\Users\\robta\\OneDrive\\Documents\\GitHub\\Commodity\\gluon\\packages\\dal\\pydal\\adapters\\base.py", line 155, in file_open\n    fileobj = portalocker.LockedFile(filename,mode)\n  File "C:\\Users\\robta\\OneDrive\\Documents\\GitHub\\Commodity\\gluon\\packages\\dal\\pydal\\contrib\\portalocker.py", line 118, in __init__\n    self.file = open(filename, mode.replace(\'w\', \'a\'))\nIOError: [Errno 13] Permission denied: \'C:\\\\Users\\\\robta\\\\OneDrive\\\\Documents\\\\GitHub\\\\Commodity\\\\applications\\\\Commodity\\\\databases\\\\c8b669d15150d7109e5f7ab36744a5b7_product_retail_link.table\'\n'
p286
s.