(dp1
S'output'
p2
S"<type 'exceptions.IOError'> [Errno 13] Permission denied: 'C:\\\\Users\\\\charl\\\\OneDrive\\\\Documents\\\\GitHub\\\\Commodity\\\\applications\\\\Commodity\\\\databases\\\\sql.log'"
p3
sS'layer'
p4
S'C:\\Users\\charl\\OneDrive\\Documents\\GitHub\\Commodity\\applications\\Commodity\\models\\db1.py'
p5
sS'code'
p6
S"# -*- coding: utf-8 -*-\ndb.define_table('products',\n                Field('product_name', requires=IS_NOT_EMPTY()),\n                Field('product_description','text',requires=IS_NOT_EMPTY()),\n                Field('product_price','double',requires=IS_NOT_EMPTY()),\n                Field('product_image','upload',requires=IS_NOT_EMPTY()),\n                Field('tag_1', requires=IS_NOT_EMPTY()),\n                Field('tag_2', requires=IS_NOT_EMPTY()),\n                Field('tag_3', requires=IS_NOT_EMPTY()),\n                Field('time_stamp','datetime',writable=False,default=request.now)\n                )\n\ndb.define_table('reviews',\n                Field('products_id', writable=False),\n                Field('reviewer_name', writable=False),\n                Field('reviewer_id', writable=False),\n                Field('review_name',requires=IS_NOT_EMPTY()),\n                Field('review_content','text',requires=IS_NOT_EMPTY()),\n                Field('review_rating','integer',requires=IS_NOT_EMPTY(), writable=False),\n                Field('time_stamp','datetime',writable=False,default=request.now)\n                )\n\ndb.define_table('retailers',\n                Field('retailer_name',requires=IS_NOT_EMPTY()),\n                Field('retailer_website',requires=IS_NOT_EMPTY())\n                )\n\ndb.define_table('review_rate_link',\n                Field('user_id',requires=IS_NOT_EMPTY()),\n                Field('review_id',requires=IS_NOT_EMPTY()),\n                )\n\ndb.define_table('product_retail_link',\n                Field('id','reference products',requires=IS_NOT_EMPTY()),\n                Field('id','reference retailers',requires=IS_NOT_EMPTY())\n                )\n"
p7
sS'snapshot'
p8
(dp9
S'exception'
p10
(dp11
S'__getslice__'
p12
S"<method-wrapper '__getslice__' of exceptions.IOError object>"
p13
sS'__str__'
p14
S"<method-wrapper '__str__' of exceptions.IOError object>"
p15
sS'__reduce__'
p16
S'<built-in method __reduce__ of exceptions.IOError object>'
p17
sS'__dict__'
p18
S'{}'
p19
sS'__sizeof__'
p20
S'<built-in method __sizeof__ of exceptions.IOError object>'
p21
sS'__init__'
p22
S"<method-wrapper '__init__' of exceptions.IOError object>"
p23
sS'__setattr__'
p24
S"<method-wrapper '__setattr__' of exceptions.IOError object>"
p25
sS'__reduce_ex__'
p26
S'<built-in method __reduce_ex__ of exceptions.IOError object>'
p27
sS'__new__'
p28
S'<built-in method __new__ of type object>'
p29
sS'errno'
p30
S'13'
p31
sS'__format__'
p32
S'<built-in method __format__ of exceptions.IOError object>'
p33
sS'__class__'
p34
S"<type 'exceptions.IOError'>"
p35
sS'filename'
p36
S"r'C:\\Users\\charl\\OneDrive\\Documents\\GitHub\\Commodity\\applications\\Commodity\\databases\\sql.log'"
p37
sS'__doc__'
p38
S"'I/O operation failed.'"
p39
sS'__getitem__'
p40
S"<method-wrapper '__getitem__' of exceptions.IOError object>"
p41
sS'__setstate__'
p42
S'<built-in method __setstate__ of exceptions.IOError object>'
p43
sS'__getattribute__'
p44
S"<method-wrapper '__getattribute__' of exceptions.IOError object>"
p45
sS'args'
p46
S"(13, 'Permission denied')"
p47
sS'__subclasshook__'
p48
S'<built-in method __subclasshook__ of type object>'
p49
sS'__unicode__'
p50
S'<built-in method __unicode__ of exceptions.IOError object>'
p51
sS'strerror'
p52
S"'Permission denied'"
p53
sS'__delattr__'
p54
S"<method-wrapper '__delattr__' of exceptions.IOError object>"
p55
sS'__repr__'
p56
S"<method-wrapper '__repr__' of exceptions.IOError object>"
p57
sS'__hash__'
p58
S"<method-wrapper '__hash__' of exceptions.IOError object>"
p59
ssS'evalue'
p60
S"[Errno 13] Permission denied: 'C:\\\\Users\\\\charl\\\\OneDrive\\\\Documents\\\\GitHub\\\\Commodity\\\\applications\\\\Commodity\\\\databases\\\\sql.log'"
p61
sS'request'
p62
cgluon.html
XML_unpickle
p63
(S's\xe2`\x00\x00<div><table><tr><td style="font-weight:bold;vertical-align:top;">ajax</td><td style="vertical-align:top;">:</td><td><div>True</div></td></tr><tr><td style="font-weight:bold;vertical-align:top;">application</td><td style="vertical-align:top;">:</td><td><div>Commodity</div></td></tr><tr><td style="font-weight:bold;vertical-align:top;">args</td><td style="vertical-align:top;">:</td><td><div><table></table></div></td></tr><tr><td style="font-weight:bold;vertical-align:top;">cid</td><td style="vertical-align:top;">:</td><td><div>c889698848663</div></td></tr><tr><td style="font-weight:bold;vertical-align:top;">client</td><td style="vertical-align:top;">:</td><td><div>127.0.0.1</div></td></tr><tr><td style="font-weight:bold;vertical-align:top;">controller</td><td style="vertical-align:top;">:</td><td><div>appadmin</div></td></tr><tr><td style="font-weight:bold;vertical-align:top;">cookies</td><td style="vertical-align:top;">:</td><td><div><table><tr><td style="font-weight:bold;vertical-align:top;">session_id_admin</td><td style="vertical-align:top;">:</td><td><div>127.0.0.1-b442e8f1-2bb9-4b85-ab07-46843be8e015<table><tr><td style="font-weight:bold;vertical-align:top;">comment</td><td style="vertical-align:top;">:</td><td><div></div></td></tr><tr><td style="font-weight:bold;vertical-align:top;">domain</td><td style="vertical-align:top;">:</td><td><div></div></td></tr><tr><td style="font-weight:bold;vertical-align:top;">expires</td><td style="vertical-align:top;">:</td><td><div></div></td></tr><tr><td style="font-weight:bold;vertical-align:top;">httponly</td><td style="vertical-align:top;">:</td><td><div></div></td></tr><tr><td style="font-weight:bold;vertical-align:top;">max-age</td><td style="vertical-align:top;">:</td><td><div></div></td></tr><tr><td style="font-weight:bold;vertical-align:top;">path</td><td style="vertical-align:top;">:</td><td><div></div></td></tr><tr><td style="font-weight:bold;vertical-align:top;">secure</td><td style="vertical-align:top;">:</td><td><div></div></td></tr><tr><td style="font-weight:bold;vertical-align:top;">version</td><td style="vertical-align:top;">:</td><td><div></div></td></tr></table></div></td></tr><tr><td style="font-weight:bold;vertical-align:top;">session_id_commodity</td><td style="vertical-align:top;">:</td><td><div>127.0.0.1-43545357-70ce-40fb-929f-d94c814198b9<table><tr><td style="font-weight:bold;vertical-align:top;">comment</td><td style="vertical-align:top;">:</td><td><div></div></td></tr><tr><td style="font-weight:bold;vertical-align:top;">domain</td><td style="vertical-align:top;">:</td><td><div></div></td></tr><tr><td style="font-weight:bold;vertical-align:top;">expires</td><td style="vertical-align:top;">:</td><td><div></div></td></tr><tr><td style="font-weight:bold;vertical-align:top;">httponly</td><td style="vertical-align:top;">:</td><td><div></div></td></tr><tr><td style="font-weight:bold;vertical-align:top;">max-age</td><td style="vertical-align:top;">:</td><td><div></div></td></tr><tr><td style="font-weight:bold;vertical-align:top;">path</td><td style="vertical-align:top;">:</td><td><div></div></td></tr><tr><td style="font-weight:bold;vertical-align:top;">secure</td><td style="vertical-align:top;">:</td><td><div></div></td></tr><tr><td style="font-weight:bold;vertical-align:top;">version</td><td style="vertical-align:top;">:</td><td><div></div></td></tr></table></div></td></tr><tr><td style="font-weight:bold;vertical-align:top;">session_id_welcome</td><td style="vertical-align:top;">:</td><td><div>127.0.0.1-6f355160-1ade-4831-aa7b-5c2f44bb1114<table><tr><td style="font-weight:bold;vertical-align:top;">comment</td><td style="vertical-align:top;">:</td><td><div></div></td></tr><tr><td style="font-weight:bold;vertical-align:top;">domain</td><td style="vertical-align:top;">:</td><td><div></div></td></tr><tr><td style="font-weight:bold;vertical-align:top;">expires</td><td style="vertical-align:top;">:</td><td><div></div></td></tr><tr><td style="font-weight:bold;vertical-align:top;">httponly</td><td style="vertical-align:top;">:</td><td><div></div></td></tr><tr><td style="font-weight:bold;vertical-align:top;">max-age</td><td style="vertical-align:top;">:</td><td><div></div></td></tr><tr><td style="font-weight:bold;vertical-align:top;">path</td><td style="vertical-align:top;">:</td><td><div></div></td></tr><tr><td style="font-weight:bold;vertical-align:top;">secure</td><td style="vertical-align:top;">:</td><td><div></div></td></tr><tr><td style="font-weight:bold;vertical-align:top;">version</td><td style="vertical-align:top;">:</td><td><div></div></td></tr></table></div></td></tr></table></div></td></tr><tr><td style="font-weight:bold;vertical-align:top;">env</td><td style="vertical-align:top;">:</td><td><div><table><tr><td style="font-weight:bold;vertical-align:top;">HTTP_ACCEPT</td><td style="vertical-align:top;">:</td><td><div>*/*</div></td></tr><tr><td style="font-weight:bold;vertical-align:top;">HTTP_ACCEPT_ENCODING</td><td style="vertical-align:top;">:</td><td><div>gzip, deflate, sdch, br</div></td></tr><tr><td style="font-weight:bold;vertical-align:top;">HTTP_ACCEPT_LANGUAGE</td><td style="vertical-align:top;">:</td><td><div>en-US,en;q=0.8</div></td></tr><tr><td style="font-weight:bold;vertical-align:top;">HTTP_CONNECTION</td><td style="vertical-align:top;">:</td><td><div>keep-alive</div></td></tr><tr><td style="font-weight:bold;vertical-align:top;">HTTP_COOKIE</td><td style="vertical-align:top;">:</td><td><div>session_id_welcome=127.0.0.1-6f355160-1ade-4831-aa7b-5c2f44bb1114; session_id_admin=127.0.0.1-b442e8f1-2bb9-4b85-ab07-46843be8e015; session_id_commodity=127.0.0.1-43545357-70ce-40fb-929f-d94c814198b9</div></td></tr><tr><td style="font-weight:bold;vertical-align:top;">HTTP_HOST</td><td style="vertical-align:top;">:</td><td><div>127.0.0.1:8000</div></td></tr><tr><td style="font-weight:bold;vertical-align:top;">HTTP_REFERER</td><td style="vertical-align:top;">:</td><td><div>http://127.0.0.1:8000/admin/default/edit/Commodity/views/default/index.html?id=views__default__index__html</div></td></tr><tr><td style="font-weight:bold;vertical-align:top;">HTTP_USER_AGENT</td><td style="vertical-align:top;">:</td><td><div>Mozilla/5.0 (Windows NT 10.0; Win64; x64) AppleWebKit/537.36 (KHTML, like Gecko) Chrome/58.0.3029.81 Safari/537.36</div></td></tr><tr><td style="font-weight:bold;vertical-align:top;">HTTP_WEB2PY_COMPONENT_ELEMENT</td><td style="vertical-align:top;">:</td><td><div>c889698848663</div></td></tr><tr><td style="font-weight:bold;vertical-align:top;">HTTP_WEB2PY_COMPONENT_LOCATION</td><td style="vertical-align:top;">:</td><td><div>http://127.0.0.1:8000/admin/default/edit/Commodity/views/default/index.html?id=views__default__index__html</div></td></tr><tr><td style="font-weight:bold;vertical-align:top;">HTTP_X_REQUESTED_WITH</td><td style="vertical-align:top;">:</td><td><div>XMLHttpRequest</div></td></tr><tr><td style="font-weight:bold;vertical-align:top;">PATH_INFO</td><td style="vertical-align:top;">:</td><td><div>/Commodity/appadmin/hooks</div></td></tr><tr><td style="font-weight:bold;vertical-align:top;">QUERY_STRING</td><td style="vertical-align:top;">:</td><td><div></div></td></tr><tr><td style="font-weight:bold;vertical-align:top;">REMOTE_ADDR</td><td style="vertical-align:top;">:</td><td><div>127.0.0.1</div></td></tr><tr><td style="font-weight:bold;vertical-align:top;">REMOTE_PORT</td><td style="vertical-align:top;">:</td><td><div>54692</div></td></tr><tr><td style="font-weight:bold;vertical-align:top;">REQUEST_METHOD</td><td style="vertical-align:top;">:</td><td><div>GET</div></td></tr><tr><td style="font-weight:bold;vertical-align:top;">SCRIPT_NAME</td><td style="vertical-align:top;">:</td><td><div></div></td></tr><tr><td style="font-weight:bold;vertical-align:top;">SERVER_NAME</td><td style="vertical-align:top;">:</td><td><div>DESKTOP-2AGAA5H</div></td></tr><tr><td style="font-weight:bold;vertical-align:top;">SERVER_PORT</td><td style="vertical-align:top;">:</td><td><div>8000</div></td></tr><tr><td style="font-weight:bold;vertical-align:top;">SERVER_PROTOCOL</td><td style="vertical-align:top;">:</td><td><div>HTTP/1.1</div></td></tr><tr><td style="font-weight:bold;vertical-align:top;">SERVER_SOFTWARE</td><td style="vertical-align:top;">:</td><td><div>Rocket 1.2.6</div></td></tr><tr><td style="font-weight:bold;vertical-align:top;">app_folders</td><td style="vertical-align:top;">:</td><td><div>set([&#x27;C:\\\\Users\\\\charl\\\\OneDrive\\\\Documents\\\\GitHub\\\\Commodity\\\\applications\\\\welcome\\\\&#x27;, &#x27;C:\\\\Users\\\\charl\\\\OneDrive\\\\Documents\\\\GitHub\\\\Commodity\\\\applications\\\\Commodity\\\\&#x27;, &#x27;C:\\\\Users\\\\charl\\\\OneDrive\\\\Documents\\\\GitHub\\\\Commodity\\\\applications\\\\admin\\\\&#x27;])</div></td></tr><tr><td style="font-weight:bold;vertical-align:top;">applications_parent</td><td style="vertical-align:top;">:</td><td><div>C:\\Users\\charl\\OneDrive\\Documents\\GitHub\\Commodity</div></td></tr><tr><td style="font-weight:bold;vertical-align:top;">cmd_args</td><td style="vertical-align:top;">:</td><td><div><table></table></div></td></tr><tr><td style="font-weight:bold;vertical-align:top;">cmd_options</td><td style="vertical-align:top;">:</td><td><div>&lt;Values at 0x2f63da0: {&#x27;verbose&#x27;: False, &#x27;ip&#x27;: &#x27;127.0.0.1&#x27;, &#x27;debuglevel&#x27;: 30, &#x27;with_scheduler&#x27;: False, &#x27;shutdown_timeout&#x27;: 5, &#x27;taskbar&#x27;: False, &#x27;with_coverage&#x27;: False, &#x27;pid_filename&#x27;: &#x27;httpserver.pid&#x27;, &#x27;maxthreads&#x27;: None, &#x27;softcron&#x27;: False, &#x27;server_name&#x27;: &#x27;DESKTOP-2AGAA5H&#x27;, &#x27;bpython&#x27;: False, &#x27;nogui&#x27;: False, &#x27;port&#x27;: 8000, &#x27;print_errors&#x27;: False, &#x27;extcron&#x27;: False, &#x27;runcron&#x27;: False, &#x27;run_system_tests&#x27;: False, &#x27;test&#x27;: None, &#x27;folder&#x27;: &#x27;C:\\\\Users\\\\charl\\\\OneDrive\\\\Documents\\\\GitHub\\\\Commodity&#x27;, &#x27;config&#x27;: &#x27;&#x27;, &#x27;minthreads&#x27;: None, &#x27;shell&#x27;: None, &#x27;run&#x27;: &#x27;&#x27;, &#x27;log_filename&#x27;: &#x27;httpserver.log&#x27;, &#x27;profiler_dir&#x27;: None, &#x27;args&#x27;: [&#x27;&#x27;], &#x27;socket_timeout&#x27;: 5, &#x27;ssl_ca_certificate&#x27;: None, &#x27;scheduler&#x27;: None, &#x27;interfaces&#x27;: None, &#x27;ssl_private_key&#x27;: &#x27;&#x27;, &#x27;gae&#x27;: None, &#x27;password&#x27;: &#x27;******&#x27;, &#x27;request_queue_size&#x27;: 5, &#x27;ssl_certificate&#x27;: &#x27;&#x27;, &#x27;cronjob&#x27;: False, &#x27;numthreads&#x27;: None, &#x27;quiet&#x27;: False, &#x27;import_models&#x27;: False, &#x27;timeout&#x27;: 10, &#x27;plain&#x27;: False, &#x27;nobanner&#x27;: False}&gt;</div></td></tr><tr><td style="font-weight:bold;vertical-align:top;">db_sessions</td><td style="vertical-align:top;">:</td><td><div>set([])</div></td></tr><tr><td style="font-weight:bold;vertical-align:top;">debugging</td><td style="vertical-align:top;">:</td><td><div>True</div></td></tr><tr><td style="font-weight:bold;vertical-align:top;">gluon_parent</td><td style="vertical-align:top;">:</td><td><div>C:\\Users\\charl\\OneDrive\\Documents\\GitHub\\Commodity</div></td></tr><tr><td style="font-weight:bold;vertical-align:top;">http_accept</td><td style="vertical-align:top;">:</td><td><div>*/*</div></td></tr><tr><td style="font-weight:bold;vertical-align:top;">http_accept_encoding</td><td style="vertical-align:top;">:</td><td><div>gzip, deflate, sdch, br</div></td></tr><tr><td style="font-weight:bold;vertical-align:top;">http_accept_language</td><td style="vertical-align:top;">:</td><td><div>en-US,en;q=0.8</div></td></tr><tr><td style="font-weight:bold;vertical-align:top;">http_connection</td><td style="vertical-align:top;">:</td><td><div>keep-alive</div></td></tr><tr><td style="font-weight:bold;vertical-align:top;">http_cookie</td><td style="vertical-align:top;">:</td><td><div>session_id_welcome=127.0.0.1-6f355160-1ade-4831-aa7b-5c2f44bb1114; session_id_admin=127.0.0.1-b442e8f1-2bb9-4b85-ab07-46843be8e015; session_id_commodity=127.0.0.1-43545357-70ce-40fb-929f-d94c814198b9</div></td></tr><tr><td style="font-weight:bold;vertical-align:top;">http_host</td><td style="vertical-align:top;">:</td><td><div>127.0.0.1:8000</div></td></tr><tr><td style="font-weight:bold;vertical-align:top;">http_referer</td><td style="vertical-align:top;">:</td><td><div>http://127.0.0.1:8000/admin/default/edit/Commodity/views/default/index.html?id=views__default__index__html</div></td></tr><tr><td style="font-weight:bold;vertical-align:top;">http_user_agent</td><td style="vertical-align:top;">:</td><td><div>Mozilla/5.0 (Windows NT 10.0; Win64; x64) AppleWebKit/537.36 (KHTML, like Gecko) Chrome/58.0.3029.81 Safari/537.36</div></td></tr><tr><td style="font-weight:bold;vertical-align:top;">http_web2py_component_element</td><td style="vertical-align:top;">:</td><td><div>c889698848663</div></td></tr><tr><td style="font-weight:bold;vertical-align:top;">http_web2py_component_location</td><td style="vertical-align:top;">:</td><td><div>http://127.0.0.1:8000/admin/default/edit/Commodity/views/default/index.html?id=views__default__index__html</div></td></tr><tr><td style="font-weight:bold;vertical-align:top;">http_x_requested_with</td><td style="vertical-align:top;">:</td><td><div>XMLHttpRequest</div></td></tr><tr><td style="font-weight:bold;vertical-align:top;">is_jython</td><td style="vertical-align:top;">:</td><td><div>False</div></td></tr><tr><td style="font-weight:bold;vertical-align:top;">is_pypy</td><td style="vertical-align:top;">:</td><td><div>False</div></td></tr><tr><td style="font-weight:bold;vertical-align:top;">is_source</td><td style="vertical-align:top;">:</td><td><div>False</div></td></tr><tr><td style="font-weight:bold;vertical-align:top;">local_hosts</td><td style="vertical-align:top;">:</td><td><div><table><tr><td><div>DESKTOP-2AGAA5H</div></td></tr><tr><td><div>::ffff:127.0.0.1</div></td></tr><tr><td><div>::1</div></td></tr><tr><td><div>192.168.0.15</div></td></tr><tr><td><div>fe80::416:8ca2:3a96:6ce2%10</div></td></tr><tr><td><div>127.0.0.1</div></td></tr></table></div></td></tr><tr><td style="font-weight:bold;vertical-align:top;">path_info</td><td style="vertical-align:top;">:</td><td><div>/Commodity/appadmin/hooks</div></td></tr><tr><td style="font-weight:bold;vertical-align:top;">query_string</td><td style="vertical-align:top;">:</td><td><div></div></td></tr><tr><td style="font-weight:bold;vertical-align:top;">remote_addr</td><td style="vertical-align:top;">:</td><td><div>127.0.0.1</div></td></tr><tr><td style="font-weight:bold;vertical-align:top;">remote_port</td><td style="vertical-align:top;">:</td><td><div>54692</div></td></tr><tr><td style="font-weight:bold;vertical-align:top;">request_method</td><td style="vertical-align:top;">:</td><td><div>GET</div></td></tr><tr><td style="font-weight:bold;vertical-align:top;">request_uri</td><td style="vertical-align:top;">:</td><td><div>/Commodity/appadmin/hooks</div></td></tr><tr><td style="font-weight:bold;vertical-align:top;">script_name</td><td style="vertical-align:top;">:</td><td><div></div></td></tr><tr><td style="font-weight:bold;vertical-align:top;">server_name</td><td style="vertical-align:top;">:</td><td><div>DESKTOP-2AGAA5H</div></td></tr><tr><td style="font-weight:bold;vertical-align:top;">server_port</td><td style="vertical-align:top;">:</td><td><div>8000</div></td></tr><tr><td style="font-weight:bold;vertical-align:top;">server_protocol</td><td style="vertical-align:top;">:</td><td><div>HTTP/1.1</div></td></tr><tr><td style="font-weight:bold;vertical-align:top;">server_software</td><td style="vertical-align:top;">:</td><td><div>Rocket 1.2.6</div></td></tr><tr><td style="font-weight:bold;vertical-align:top;">web2py_path</td><td style="vertical-align:top;">:</td><td><div>C:\\Users\\charl\\OneDrive\\Documents\\GitHub\\Commodity</div></td></tr><tr><td style="font-weight:bold;vertical-align:top;">web2py_version</td><td style="vertical-align:top;">:</td><td><div>2.14.6-stable+timestamp.2016.05.10.00.21.47</div></td></tr><tr><td style="font-weight:bold;vertical-align:top;">wsgi.errors</td><td style="vertical-align:top;">:</td><td><div>&lt;open file &#x27;&lt;stderr&gt;&#x27;, mode &#x27;w&#x27; at 0x0224D0D0&gt;</div></td></tr><tr><td style="font-weight:bold;vertical-align:top;">wsgi.file_wrapper</td><td style="vertical-align:top;">:</td><td><div>&lt;class wsgiref.util.FileWrapper at 0x0265A030&gt;</div></td></tr><tr><td style="font-weight:bold;vertical-align:top;">wsgi.input</td><td style="vertical-align:top;">:</td><td><div>&lt;socket._fileobject object at 0x0A5333F0&gt;</div></td></tr><tr><td style="font-weight:bold;vertical-align:top;">wsgi.multiprocess</td><td style="vertical-align:top;">:</td><td><div>False</div></td></tr><tr><td style="font-weight:bold;vertical-align:top;">wsgi.multithread</td><td style="vertical-align:top;">:</td><td><div>True</div></td></tr><tr><td style="font-weight:bold;vertical-align:top;">wsgi.run_once</td><td style="vertical-align:top;">:</td><td><div>False</div></td></tr><tr><td style="font-weight:bold;vertical-align:top;">wsgi.url_scheme</td><td style="vertical-align:top;">:</td><td><div>http</div></td></tr><tr><td style="font-weight:bold;vertical-align:top;">wsgi.version</td><td style="vertical-align:top;">:</td><td><div><table><tr><td><div>1</div></td></tr><tr><td><div>0</div></td></tr></table></div></td></tr><tr><td style="font-weight:bold;vertical-align:top;">wsgi_errors</td><td style="vertical-align:top;">:</td><td><div>&lt;open file &#x27;&lt;stderr&gt;&#x27;, mode &#x27;w&#x27; at 0x0224D0D0&gt;</div></td></tr><tr><td style="font-weight:bold;vertical-align:top;">wsgi_file_wrapper</td><td style="vertical-align:top;">:</td><td><div>&lt;class wsgiref.util.FileWrapper at 0x0265A030&gt;</div></td></tr><tr><td style="font-weight:bold;vertical-align:top;">wsgi_input</td><td style="vertical-align:top;">:</td><td><div>&lt;socket._fileobject object at 0x0A5333F0&gt;</div></td></tr><tr><td style="font-weight:bold;vertical-align:top;">wsgi_multiprocess</td><td style="vertical-align:top;">:</td><td><div>False</div></td></tr><tr><td style="font-weight:bold;vertical-align:top;">wsgi_multithread</td><td style="vertical-align:top;">:</td><td><div>True</div></td></tr><tr><td style="font-weight:bold;vertical-align:top;">wsgi_run_once</td><td style="vertical-align:top;">:</td><td><div>False</div></td></tr><tr><td style="font-weight:bold;vertical-align:top;">wsgi_url_scheme</td><td style="vertical-align:top;">:</td><td><div>http</div></td></tr><tr><td style="font-weight:bold;vertical-align:top;">wsgi_version</td><td style="vertical-align:top;">:</td><td><div><table><tr><td><div>1</div></td></tr><tr><td><div>0</div></td></tr></table></div></td></tr></table></div></td></tr><tr><td style="font-weight:bold;vertical-align:top;">extension</td><td style="vertical-align:top;">:</td><td><div>html</div></td></tr><tr><td style="font-weight:bold;vertical-align:top;">folder</td><td style="vertical-align:top;">:</td><td><div>C:\\Users\\charl\\OneDrive\\Documents\\GitHub\\Commodity\\applications\\Commodity\\</div></td></tr><tr><td style="font-weight:bold;vertical-align:top;">function</td><td style="vertical-align:top;">:</td><td><div>hooks</div></td></tr><tr><td style="font-weight:bold;vertical-align:top;">global_settings</td><td style="vertical-align:top;">:</td><td><div><table><tr><td style="font-weight:bold;vertical-align:top;">app_folders</td><td style="vertical-align:top;">:</td><td><div>set([&#x27;C:\\\\Users\\\\charl\\\\OneDrive\\\\Documents\\\\GitHub\\\\Commodity\\\\applications\\\\welcome\\\\&#x27;, &#x27;C:\\\\Users\\\\charl\\\\OneDrive\\\\Documents\\\\GitHub\\\\Commodity\\\\applications\\\\Commodity\\\\&#x27;, &#x27;C:\\\\Users\\\\charl\\\\OneDrive\\\\Documents\\\\GitHub\\\\Commodity\\\\applications\\\\admin\\\\&#x27;])</div></td></tr><tr><td style="font-weight:bold;vertical-align:top;">applications_parent</td><td style="vertical-align:top;">:</td><td><div>C:\\Users\\charl\\OneDrive\\Documents\\GitHub\\Commodity</div></td></tr><tr><td style="font-weight:bold;vertical-align:top;">cmd_args</td><td style="vertical-align:top;">:</td><td><div><table></table></div></td></tr><tr><td style="font-weight:bold;vertical-align:top;">cmd_options</td><td style="vertical-align:top;">:</td><td><div>&lt;Values at 0x2f63da0: {&#x27;verbose&#x27;: False, &#x27;ip&#x27;: &#x27;127.0.0.1&#x27;, &#x27;debuglevel&#x27;: 30, &#x27;with_scheduler&#x27;: False, &#x27;shutdown_timeout&#x27;: 5, &#x27;taskbar&#x27;: False, &#x27;with_coverage&#x27;: False, &#x27;pid_filename&#x27;: &#x27;httpserver.pid&#x27;, &#x27;maxthreads&#x27;: None, &#x27;softcron&#x27;: False, &#x27;server_name&#x27;: &#x27;DESKTOP-2AGAA5H&#x27;, &#x27;bpython&#x27;: False, &#x27;nogui&#x27;: False, &#x27;port&#x27;: 8000, &#x27;print_errors&#x27;: False, &#x27;extcron&#x27;: False, &#x27;runcron&#x27;: False, &#x27;run_system_tests&#x27;: False, &#x27;test&#x27;: None, &#x27;folder&#x27;: &#x27;C:\\\\Users\\\\charl\\\\OneDrive\\\\Documents\\\\GitHub\\\\Commodity&#x27;, &#x27;config&#x27;: &#x27;&#x27;, &#x27;minthreads&#x27;: None, &#x27;shell&#x27;: None, &#x27;run&#x27;: &#x27;&#x27;, &#x27;log_filename&#x27;: &#x27;httpserver.log&#x27;, &#x27;profiler_dir&#x27;: None, &#x27;args&#x27;: [&#x27;&#x27;], &#x27;socket_timeout&#x27;: 5, &#x27;ssl_ca_certificate&#x27;: None, &#x27;scheduler&#x27;: None, &#x27;interfaces&#x27;: None, &#x27;ssl_private_key&#x27;: &#x27;&#x27;, &#x27;gae&#x27;: None, &#x27;password&#x27;: &#x27;******&#x27;, &#x27;request_queue_size&#x27;: 5, &#x27;ssl_certificate&#x27;: &#x27;&#x27;, &#x27;cronjob&#x27;: False, &#x27;numthreads&#x27;: None, &#x27;quiet&#x27;: False, &#x27;import_models&#x27;: False, &#x27;timeout&#x27;: 10, &#x27;plain&#x27;: False, &#x27;nobanner&#x27;: False}&gt;</div></td></tr><tr><td style="font-weight:bold;vertical-align:top;">db_sessions</td><td style="vertical-align:top;">:</td><td><div>set([])</div></td></tr><tr><td style="font-weight:bold;vertical-align:top;">debugging</td><td style="vertical-align:top;">:</td><td><div>True</div></td></tr><tr><td style="font-weight:bold;vertical-align:top;">gluon_parent</td><td style="vertical-align:top;">:</td><td><div>C:\\Users\\charl\\OneDrive\\Documents\\GitHub\\Commodity</div></td></tr><tr><td style="font-weight:bold;vertical-align:top;">is_jython</td><td style="vertical-align:top;">:</td><td><div>False</div></td></tr><tr><td style="font-weight:bold;vertical-align:top;">is_pypy</td><td style="vertical-align:top;">:</td><td><div>False</div></td></tr><tr><td style="font-weight:bold;vertical-align:top;">is_source</td><td style="vertical-align:top;">:</td><td><div>False</div></td></tr><tr><td style="font-weight:bold;vertical-align:top;">local_hosts</td><td style="vertical-align:top;">:</td><td><div><table><tr><td><div>DESKTOP-2AGAA5H</div></td></tr><tr><td><div>::ffff:127.0.0.1</div></td></tr><tr><td><div>::1</div></td></tr><tr><td><div>192.168.0.15</div></td></tr><tr><td><div>fe80::416:8ca2:3a96:6ce2%10</div></td></tr><tr><td><div>127.0.0.1</div></td></tr></table></div></td></tr><tr><td style="font-weight:bold;vertical-align:top;">web2py_version</td><td style="vertical-align:top;">:</td><td><div>2.14.6-stable+timestamp.2016.05.10.00.21.47</div></td></tr></table></div></td></tr><tr><td style="font-weight:bold;vertical-align:top;">is_https</td><td style="vertical-align:top;">:</td><td><div>False</div></td></tr><tr><td style="font-weight:bold;vertical-align:top;">is_local</td><td style="vertical-align:top;">:</td><td><div>True</div></td></tr><tr><td style="font-weight:bold;vertical-align:top;">is_restful</td><td style="vertical-align:top;">:</td><td><div>False</div></td></tr><tr><td style="font-weight:bold;vertical-align:top;">is_scheduler</td><td style="vertical-align:top;">:</td><td><div>False</div></td></tr><tr><td style="font-weight:bold;vertical-align:top;">is_shell</td><td style="vertical-align:top;">:</td><td><div>False</div></td></tr><tr><td style="font-weight:bold;vertical-align:top;">now</td><td style="vertical-align:top;">:</td><td><div>datetime.datetime(2017, 4, 29, 11, 14, 25, 941000)</div></td></tr><tr><td style="font-weight:bold;vertical-align:top;">raw_args</td><td style="vertical-align:top;">:</td><td><div></div></td></tr><tr><td style="font-weight:bold;vertical-align:top;">raw_extension</td><td style="vertical-align:top;">:</td><td><div>None</div></td></tr><tr><td style="font-weight:bold;vertical-align:top;">url</td><td style="vertical-align:top;">:</td><td><div>/Commodity/appadmin/hooks</div></td></tr><tr><td style="font-weight:bold;vertical-align:top;">utcnow</td><td style="vertical-align:top;">:</td><td><div>datetime.datetime(2017, 4, 29, 10, 14, 25, 941000)</div></td></tr><tr><td style="font-weight:bold;vertical-align:top;">wsgi</td><td style="vertical-align:top;">:</td><td><div>&lt;gluon.main.LazyWSGI object at 0x0A4BF3F0&gt;</div></td></tr></table></div>'
tRp64
sS'frames'
p65
(lp66
(dp67
S'file'
p68
S'C:\\Users\\charl\\OneDrive\\Documents\\GitHub\\Commodity\\gluon\\restricted.py'
p69
sS'dump'
p70
(dp71
S'environment'
p72
S"{'A': <class 'gluon.html.A'>, 'ANY_OF': <class 'gluon.validators.ANY_OF'>, 'ASSIGNJS': <function ASSIGNJS>, 'AppConfig': <function AppConfig>, 'Auth': <class 'gluon.tools.Auth'>, 'B': <class 'gluon.html.B'>, 'BEAUTIFY': <class 'gluon.html.BEAUTIFY'>, 'BODY': <class 'gluon.html.BODY'>, 'BR': <class 'gluon.html.BR'>, 'BUTTON': <class 'gluon.html.BUTTON'>, ...}"
p73
sS'ccode'
p74
S'<code object <module> at 0A152F08, file "C:\\User...ty\\applications\\Commodity\\models\\db1.py", line 2>'
p75
ssS'lnum'
p76
I227
sS'lines'
p77
(dp78
I224
S'            ccode = code'
p79
sI225
S'        else:'
p80
sI226
S'            ccode = compile2(code, layer)'
p81
sI227
S'        exec ccode in environment'
p82
sI228
S'    except HTTP:'
p83
sI229
S'        raise'
p84
sI230
S'    except RestrictedError:'
p85
sI231
S'        # do not encapsulate (obfuscate) the original RestrictedError'
p86
sI222
S'    try:'
p87
sI223
S'        if isinstance(code, types.CodeType):'
p88
ssS'call'
p89
S'(code="# -*- coding: utf-8 -*-\\ndb.define_table(\'product...lers\',requires=IS_NOT_EMPTY())\\n                )\\n", environment={\'A\': <class \'gluon.html.A\'>, \'ANY_OF\': <class \'gluon.validators.ANY_OF\'>, \'ASSIGNJS\': <function ASSIGNJS>, \'AppConfig\': <function AppConfig>, \'Auth\': <class \'gluon.tools.Auth\'>, \'B\': <class \'gluon.html.B\'>, \'BEAUTIFY\': <class \'gluon.html.BEAUTIFY\'>, \'BODY\': <class \'gluon.html.BODY\'>, \'BR\': <class \'gluon.html.BR\'>, \'BUTTON\': <class \'gluon.html.BUTTON\'>, ...}, layer=r\'C:\\Users\\charl\\OneDrive\\Documents\\GitHub\\Commodity\\applications\\Commodity\\models\\db1.py\')'
p90
sS'func'
p91
S'restricted'
p92
sa(dp93
g68
S'C:\\Users\\charl\\OneDrive\\Documents\\GitHub\\Commodity\\applications\\Commodity\\models\\db1.py'
p94
sg70
(dp95
S'builtinFalse'
p96
S'False'
p97
sS'default'
p98
S'undefined'
p99
sS'request'
p100
S"<Storage {'_vars': None, 'function': 'hooks', 'c...\\\\GitHub\\\\Commodity\\\\applications\\\\Commodity\\\\'}>"
p101
sS'request.now'
p102
S'datetime.datetime(2017, 4, 29, 11, 14, 25, 941000)'
p103
sS'writable'
p104
g99
sS'Field'
p105
S"<class 'pydal.objects.Field'>"
p106
ssg76
I10
sg77
(dp107
I5
S"                Field('product_price','double',requires=IS_NOT_EMPTY()),"
p108
sI6
S"                Field('product_image','upload',requires=IS_NOT_EMPTY()),"
p109
sI7
S"                Field('tag_1', requires=IS_NOT_EMPTY()),"
p110
sI8
S"                Field('tag_2', requires=IS_NOT_EMPTY()),"
p111
sI9
S"                Field('tag_3', requires=IS_NOT_EMPTY()),"
p112
sI10
S"                Field('time_stamp','datetime',writable=False,default=request.now)"
p113
sI11
S'                )'
p114
sI12
S''
sI13
S"db.define_table('reviews',"
p115
sI14
S"                Field('products_id', writable=False),"
p116
ssg89
S'()'
p117
sg91
S'<module>'
p118
sa(dp119
g68
S'C:\\Users\\charl\\OneDrive\\Documents\\GitHub\\Commodity\\gluon\\packages\\dal\\pydal\\base.py'
p120
sg70
(dp121
S'fields'
p122
S'(<pydal.objects.Field object>, <pydal.objects.Field object>, <pydal.objects.Field object>, <pydal.objects.Field object>, <pydal.objects.Field object>, <pydal.objects.Field object>, <pydal.objects.Field object>, <pydal.objects.Field object>)'
p123
sS'self'
p124
S'<DAL uri="sqlite://storage.sqlite">'
p125
sS'args'
p126
g19
sS'tablename'
p127
S"'products'"
p128
sS'table'
p129
g99
sS'self.lazy_define_table'
p130
S'<bound method DAL.lazy_define_table of <DAL uri="sqlite://storage.sqlite">>'
p131
ssg76
I834
sg77
(dp132
I832
S'            table = None'
p133
sI833
S'        else:'
p134
sI834
S'            table = self.lazy_define_table(tablename,*fields,**args)'
p135
sI835
S'        if not tablename in self.tables:'
p136
sI836
S'            self.tables.append(tablename)'
p137
sI837
S'        return table'
p138
sI838
S''
sI829
S'                    % (tablename,invalid_args))'
p139
sI830
S'        if self._lazy_tables and tablename not in self._LAZY_TABLES:'
p140
sI831
S'            self._LAZY_TABLES[tablename] = (tablename,fields,args)'
p141
ssg89
S'(self=<DAL uri="sqlite://storage.sqlite">, tablename=\'products\', *fields=(<pydal.objects.Field object>, <pydal.objects.Field object>, <pydal.objects.Field object>, <pydal.objects.Field object>, <pydal.objects.Field object>, <pydal.objects.Field object>, <pydal.objects.Field object>, <pydal.objects.Field object>), **args={})'
p142
sg91
S'define_table'
p143
sa(dp144
g68
S'C:\\Users\\charl\\OneDrive\\Documents\\GitHub\\Commodity\\gluon\\packages\\dal\\pydal\\base.py'
p145
sg70
(dp146
S'polymodel'
p147
S'None'
p148
ssg76
I873
sg77
(dp149
I868
S'            try:'
p150
sI869
S'                GLOBAL_LOCKER.acquire()'
p151
sI870
S'                self._lastsql = self._adapter.create_table('
p152
sI871
S'                    table,migrate=migrate,'
p153
sI872
S'                    fake_migrate=fake_migrate,'
p154
sI873
S'                    polymodel=polymodel)'
p155
sI874
S'            finally:'
p156
sI875
S'                GLOBAL_LOCKER.release()'
p157
sI876
S'        else:'
p158
sI877
S'            table._dbt = None'
p159
ssg89
S'(self=<DAL uri="sqlite://storage.sqlite">, tablename=\'products\', *fields=(<pydal.objects.Field object>, <pydal.objects.Field object>, <pydal.objects.Field object>, <pydal.objects.Field object>, <pydal.objects.Field object>, <pydal.objects.Field object>, <pydal.objects.Field object>, <pydal.objects.Field object>), **args={})'
p160
sg91
S'lazy_define_table'
p161
sa(dp162
g68
S'C:\\Users\\charl\\OneDrive\\Documents\\GitHub\\Commodity\\gluon\\packages\\dal\\pydal\\adapters\\base.py'
p163
sg70
(dp164
S'fake_migrate'
p165
g97
ssg76
I510
sg77
(dp166
I512
S'        return query'
p167
sI513
S''
sI514
S'    def migrate_table('
p168
sI505
S'            if sql_fields != sql_fields_old:'
p169
sI506
S'                self.migrate_table('
p170
sI507
S'                    table,'
p171
sI508
S'                    sql_fields, sql_fields_old,'
p172
sI509
S'                    sql_fields_aux, None,'
p173
sI510
S'                    fake_migrate=fake_migrate'
p174
sI511
S'                    )'
p175
ssg89
S'(self=<pydal.adapters.sqlite.SQLiteAdapter object>, table=<Table products (id, product_name, product_descr... product_image, tag_1, tag_2, tag_3, time_stamp)>, migrate=True, fake_migrate=False, polymodel=None)'
p176
sg91
S'create_table'
p177
sa(dp178
g68
S'C:\\Users\\charl\\OneDrive\\Documents\\GitHub\\Commodity\\gluon\\packages\\dal\\pydal\\adapters\\base.py'
p179
sg70
(dp180
S'table'
p181
S'<Table products (id, product_name, product_descr... product_image, tag_1, tag_2, tag_3, time_stamp)>'
p182
sS'self'
p183
S'<pydal.adapters.sqlite.SQLiteAdapter object>'
p184
sS'self.log'
p185
S'<bound method SQLiteAdapter.log of <pydal.adapters.sqlite.SQLiteAdapter object>>'
p186
ssg76
I640
sg77
(dp187
I640
S"            self.log('success!\\n', table)"
p188
sI641
S''
sI642
S'    def save_dbt(self,table, sql_fields_current):'
p189
sI643
S"        tfile = self.file_open(table._dbt, 'wb')"
p190
sI644
S'        pickle.dump(sql_fields_current, tfile)'
p191
sI635
S'                self.save_dbt(table,sql_fields_current)'
p192
sI636
S''
sI637
S'        if metadata_change and not (query and db._adapter.commit_on_alter_table):'
p193
sI638
S'            db.commit()'
p194
sI639
S'            self.save_dbt(table,sql_fields_current)'
p195
ssg89
S"(self=<pydal.adapters.sqlite.SQLiteAdapter object>, table=<Table products (id, product_name, product_descr... product_image, tag_1, tag_2, tag_3, time_stamp)>, sql_fields={'id': {'length': 512, 'notnull': False, 'sortable': 1, 'sql': 'INTEGER PRIMARY KEY AUTOINCREMENT', 'type': 'id', 'unique': False}, 'product_description': {'length': 32768, 'notnull': False, 'sortable': 3, 'sql': 'TEXT', 'type': 'text', 'unique': False}, 'product_image': {'length': 512, 'notnull': False, 'sortable': 5, 'sql': 'CHAR(512)', 'type': 'upload', 'unique': False}, 'product_name': {'length': 512, 'notnull': False, 'sortable': 2, 'sql': 'CHAR(512)', 'type': 'string', 'unique': False}, 'product_price': {'length': 512, 'notnull': False, 'sortable': 4, 'sql': 'DOUBLE', 'type': 'double', 'unique': False}, 'tag_1': {'length': 512, 'notnull': False, 'sortable': 6, 'sql': 'CHAR(512)', 'type': 'string', 'unique': False}, 'tag_2': {'length': 512, 'notnull': False, 'sortable': 7, 'sql': 'CHAR(512)', 'type': 'string', 'unique': False}, 'tag_3': {'length': 512, 'notnull': False, 'sortable': 8, 'sql': 'CHAR(512)', 'type': 'string', 'unique': False}, 'time_stamp': {'length': 512, 'notnull': False, 'sortable': 9, 'sql': 'TIMESTAMP', 'type': 'datetime', 'unique': False}}, sql_fields_old={'id': {'length': 512, 'notnull': False, 'sortable': 1, 'sql': 'INTEGER PRIMARY KEY AUTOINCREMENT', 'type': 'id', 'unique': False}, 'product_description': {'length': 32768, 'notnull': False, 'sortable': 3, 'sql': 'TEXT', 'type': 'text', 'unique': False}, 'product_image': {'length': 512, 'notnull': False, 'sortable': 5, 'sql': 'CHAR(512)', 'type': 'upload', 'unique': False}, 'product_name': {'length': 512, 'notnull': False, 'sortable': 2, 'sql': 'CHAR(512)', 'type': 'string', 'unique': False}, 'product_price': {'length': 512, 'notnull': False, 'sortable': 4, 'sql': 'DOUBLE', 'type': 'double', 'unique': False}, 'product_stock': {'length': 512L, 'notnull': 0L, 'sortable': 5L, 'sql': 'INTEGER', 'type': 'integer', 'unique': 0L}, 'tag_1': {'length': 512, 'notnull': False, 'sortable': 6, 'sql': 'CHAR(512)', 'type': 'string', 'unique': False}, 'tag_2': {'length': 512, 'notnull': False, 'sortable': 7, 'sql': 'CHAR(512)', 'type': 'string', 'unique': False}, 'tag_3': {'length': 512, 'notnull': False, 'sortable': 8, 'sql': 'CHAR(512)', 'type': 'string', 'unique': False}, 'time_stamp': {'length': 512, 'notnull': False, 'sortable': 9, 'sql': 'TIMESTAMP', 'type': 'datetime', 'unique': False}}, sql_fields_aux={'id': {'sql': 'INTEGER PRIMARY KEY AUTOINCREMENT'}, 'product_description': {'sql': 'TEXT'}, 'product_image': {'sql': 'CHAR(512)'}, 'product_name': {'sql': 'CHAR(512)'}, 'product_price': {'sql': 'DOUBLE'}, 'tag_1': {'sql': 'CHAR(512)'}, 'tag_2': {'sql': 'CHAR(512)'}, 'tag_3': {'sql': 'CHAR(512)'}, 'time_stamp': {'sql': 'TIMESTAMP'}}, logfile=None, fake_migrate=False)"
p196
sg91
S'migrate_table'
p197
sa(dp198
g68
S'C:\\Users\\charl\\OneDrive\\Documents\\GitHub\\Commodity\\gluon\\packages\\dal\\pydal\\adapters\\base.py'
p199
sg70
(dp200
S'table'
p201
S'<Table products (id, product_name, product_descr... product_image, tag_1, tag_2, tag_3, time_stamp)>'
p202
sS'self'
p203
S'<pydal.adapters.sqlite.SQLiteAdapter object>'
p204
sS'logfile'
p205
g99
sS'table._loggername'
p206
S"r'C:\\Users\\charl\\OneDrive\\Documents\\GitHub\\Commodity\\applications\\Commodity\\databases\\sql.log'"
p207
sS'self.file_open'
p208
S'<bound method SQLiteAdapter.file_open of <pydal.adapters.sqlite.SQLiteAdapter object>>'
p209
ssg76
I212
sg77
(dp210
I207
S'        if table and table._dbt and writelog and self.folder:'
p211
sI208
S'            if isabs:'
p212
sI209
S'                table._loggername = logfilename'
p213
sI210
S'            else:'
p214
sI211
S'                table._loggername = pjoin(self.folder, logfilename)'
p215
sI212
S"            logfile = self.file_open(table._loggername, 'ab')"
p216
sI213
S'            logfile.write(to_bytes(message))'
p217
sI214
S'            self.file_close(logfile)'
p218
sI215
S''
sI216
S"    def __init__(self, db, uri, pool_size=0, folder=None, db_codec='UTF-8',"
p219
ssg89
S"(self=<pydal.adapters.sqlite.SQLiteAdapter object>, message='success!\\n', table=<Table products (id, product_name, product_descr... product_image, tag_1, tag_2, tag_3, time_stamp)>)"
p220
sg91
S'log'
p221
sa(dp222
g68
S'C:\\Users\\charl\\OneDrive\\Documents\\GitHub\\Commodity\\gluon\\packages\\dal\\pydal\\adapters\\base.py'
p223
sg70
(dp224
S'mode'
p225
S"'ab'"
p226
sS'portalocker.LockedFile'
p227
S"<class 'pydal.contrib.portalocker.LockedFile'>"
p228
sS'global portalocker'
p229
S"<module 'pydal.contrib.portalocker' from 'C:\\Use...gluon\\packages\\dal\\pydal\\contrib\\portalocker.py'>"
p230
sS'fileobj'
p231
g99
sS'filename'
p232
S"r'C:\\Users\\charl\\OneDrive\\Documents\\GitHub\\Commodity\\applications\\Commodity\\databases\\sql.log'"
p233
ssg76
I155
sg77
(dp234
I150
S'        return exists(filename)'
p235
sI151
S''
sI152
S"    def file_open(self, filename, mode='rb', lock=True):"
p236
sI153
S'        #to be used ONLY for files that on GAE may not be on filesystem'
p237
sI154
S'        if lock:'
p238
sI155
S'            fileobj = portalocker.LockedFile(filename,mode)'
p239
sI156
S'        else:'
p240
sI157
S'            fileobj = open(filename,mode)'
p241
sI158
S'        return fileobj'
p242
sI159
S''
ssg89
S"(self=<pydal.adapters.sqlite.SQLiteAdapter object>, filename=r'C:\\Users\\charl\\OneDrive\\Documents\\GitHub\\Commodity\\applications\\Commodity\\databases\\sql.log', mode='ab', lock=True)"
p243
sg91
S'file_open'
p244
sa(dp245
g68
S'C:\\Users\\charl\\OneDrive\\Documents\\GitHub\\Commodity\\gluon\\packages\\dal\\pydal\\contrib\\portalocker.py'
p246
sg70
(dp247
S'mode.replace'
p248
S'<built-in method replace of str object>'
p249
sS'self'
p250
S'<pydal.contrib.portalocker.LockedFile object>'
p251
sS'filename'
p252
S"r'C:\\Users\\charl\\OneDrive\\Documents\\GitHub\\Commodity\\applications\\Commodity\\databases\\sql.log'"
p253
sS'mode'
p254
S"'ab'"
p255
sS'self.file'
p256
S'None'
p257
sS'builtinopen'
p258
S'<built-in function open>'
p259
ssg76
I118
sg77
(dp260
I113
S'        self.file = None'
p261
sI114
S"        if 'r' in mode:"
p262
sI115
S'            self.file = open(filename, mode)'
p263
sI116
S'            lock(self.file, LOCK_SH)'
p264
sI117
S"        elif 'w' in mode or 'a' in mode:"
p265
sI118
S"            self.file = open(filename, mode.replace('w', 'a'))"
p266
sI119
S'            lock(self.file, LOCK_EX)'
p267
sI120
S"            if not 'a' in mode:"
p268
sI121
S'                self.file.seek(0)'
p269
sI122
S'                self.file.truncate(0)'
p270
ssg89
S"(self=<pydal.contrib.portalocker.LockedFile object>, filename=r'C:\\Users\\charl\\OneDrive\\Documents\\GitHub\\Commodity\\applications\\Commodity\\databases\\sql.log', mode='ab')"
p271
sg91
g22
sasS'pyver'
p272
S'Python 2.7.9: C:\\Users\\charl\\OneDrive\\Documents\\GitHub\\Commodity\\web2py.exe (prefix: )'
p273
sS'session'
p274
g63
(S's\x1a\x00\x00\x00<div><table></table></div>'
tRp275
sS'etype'
p276
S"<type 'exceptions.IOError'>"
p277
sS'date'
p278
S'Sat Apr 29 11:14:26 2017'
p279
sS'response'
p280
g63
(S's\xb5\x17\x00\x00<div><table><tr><td style="font-weight:bold;vertical-align:top;">body</td><td style="vertical-align:top;">:</td><td><div>&lt;cStringIO.StringO object at 0x0A4BF1A0&gt;</div></td></tr><tr><td style="font-weight:bold;vertical-align:top;">cookies</td><td style="vertical-align:top;">:</td><td><div><table><tr><td style="font-weight:bold;vertical-align:top;">session_id_commodity</td><td style="vertical-align:top;">:</td><td><div>127.0.0.1-43545357-70ce-40fb-929f-d94c814198b9<table><tr><td style="font-weight:bold;vertical-align:top;">comment</td><td style="vertical-align:top;">:</td><td><div></div></td></tr><tr><td style="font-weight:bold;vertical-align:top;">domain</td><td style="vertical-align:top;">:</td><td><div></div></td></tr><tr><td style="font-weight:bold;vertical-align:top;">expires</td><td style="vertical-align:top;">:</td><td><div></div></td></tr><tr><td style="font-weight:bold;vertical-align:top;">httponly</td><td style="vertical-align:top;">:</td><td><div></div></td></tr><tr><td style="font-weight:bold;vertical-align:top;">max-age</td><td style="vertical-align:top;">:</td><td><div></div></td></tr><tr><td style="font-weight:bold;vertical-align:top;">path</td><td style="vertical-align:top;">:</td><td><div>/</div></td></tr><tr><td style="font-weight:bold;vertical-align:top;">secure</td><td style="vertical-align:top;">:</td><td><div></div></td></tr><tr><td style="font-weight:bold;vertical-align:top;">version</td><td style="vertical-align:top;">:</td><td><div></div></td></tr></table></div></td></tr></table></div></td></tr><tr><td style="font-weight:bold;vertical-align:top;">delimiters</td><td style="vertical-align:top;">:</td><td><div><table><tr><td><div>{{</div></td></tr><tr><td><div>}}</div></td></tr></table></div></td></tr><tr><td style="font-weight:bold;vertical-align:top;">files</td><td style="vertical-align:top;">:</td><td><div><table></table></div></td></tr><tr><td style="font-weight:bold;vertical-align:top;">flash</td><td style="vertical-align:top;">:</td><td><div></div></td></tr><tr><td style="font-weight:bold;vertical-align:top;">form_label_separator</td><td style="vertical-align:top;">:</td><td><div></div></td></tr><tr><td style="font-weight:bold;vertical-align:top;">formstyle</td><td style="vertical-align:top;">:</td><td><div>bootstrap3_inline</div></td></tr><tr><td style="font-weight:bold;vertical-align:top;">generic_patterns</td><td style="vertical-align:top;">:</td><td><div><table><tr><td><div>*</div></td></tr></table></div></td></tr><tr><td style="font-weight:bold;vertical-align:top;">headers</td><td style="vertical-align:top;">:</td><td><div><table><tr><td style="font-weight:bold;vertical-align:top;">X-Powered-By</td><td style="vertical-align:top;">:</td><td><div>web2py</div></td></tr></table></div></td></tr><tr><td style="font-weight:bold;vertical-align:top;">menu</td><td style="vertical-align:top;">:</td><td><div><table></table></div></td></tr><tr><td style="font-weight:bold;vertical-align:top;">meta</td><td style="vertical-align:top;">:</td><td><div><table></table></div></td></tr><tr><td style="font-weight:bold;vertical-align:top;">models_to_run</td><td style="vertical-align:top;">:</td><td><div><table><tr><td><div>^\\w+\\.py$</div></td></tr><tr><td><div>^appadmin/\\w+\\.py$</div></td></tr><tr><td><div>^appadmin/hooks/\\w+\\.py$</div></td></tr></table></div></td></tr><tr><td style="font-weight:bold;vertical-align:top;">postprocessing</td><td style="vertical-align:top;">:</td><td><div><table></table></div></td></tr><tr><td style="font-weight:bold;vertical-align:top;">session_client</td><td style="vertical-align:top;">:</td><td><div>127.0.0.1</div></td></tr><tr><td style="font-weight:bold;vertical-align:top;">session_cookie_compression_level</td><td style="vertical-align:top;">:</td><td><div>None</div></td></tr><tr><td style="font-weight:bold;vertical-align:top;">session_cookie_expires</td><td style="vertical-align:top;">:</td><td><div>None</div></td></tr><tr><td style="font-weight:bold;vertical-align:top;">session_data_name</td><td style="vertical-align:top;">:</td><td><div>session_data_commodity</div></td></tr><tr><td style="font-weight:bold;vertical-align:top;">session_file</td><td style="vertical-align:top;">:</td><td><div>&lt;open file &#x27;C:\\\\Users\\\\charl\\\\OneDrive\\\\Documents\\\\GitHub\\\\Commodity\\\\applications\\\\Commodity\\\\sessions\\\\0e0\\\\0bd\\\\127.0.0.1-43545357-70ce-40fb-929f-d94c814198b9&#x27;, mode &#x27;rb+&#x27; at 0x04742E90&gt;</div></td></tr><tr><td style="font-weight:bold;vertical-align:top;">session_filename</td><td style="vertical-align:top;">:</td><td><div>C:\\Users\\charl\\OneDrive\\Documents\\GitHub\\Commodity\\applications\\Commodity\\sessions\\127.0.0.1-43545357-70ce-40fb-929f-d94c814198b9</div></td></tr><tr><td style="font-weight:bold;vertical-align:top;">session_hash</td><td style="vertical-align:top;">:</td><td><div>1e94bd71a1c3c4d897764dd4562e5b4f</div></td></tr><tr><td style="font-weight:bold;vertical-align:top;">session_id</td><td style="vertical-align:top;">:</td><td><div>127.0.0.1-43545357-70ce-40fb-929f-d94c814198b9</div></td></tr><tr><td style="font-weight:bold;vertical-align:top;">session_id_name</td><td style="vertical-align:top;">:</td><td><div>session_id_commodity</div></td></tr><tr><td style="font-weight:bold;vertical-align:top;">session_locked</td><td style="vertical-align:top;">:</td><td><div>True</div></td></tr><tr><td style="font-weight:bold;vertical-align:top;">session_masterapp</td><td style="vertical-align:top;">:</td><td><div>Commodity</div></td></tr><tr><td style="font-weight:bold;vertical-align:top;">session_new</td><td style="vertical-align:top;">:</td><td><div>False</div></td></tr><tr><td style="font-weight:bold;vertical-align:top;">session_storage_type</td><td style="vertical-align:top;">:</td><td><div>file</div></td></tr><tr><td style="font-weight:bold;vertical-align:top;">status</td><td style="vertical-align:top;">:</td><td><div>200</div></td></tr><tr><td style="font-weight:bold;vertical-align:top;">view</td><td style="vertical-align:top;">:</td><td><div>appadmin/hooks.html</div></td></tr></table></div>'
tRp281
sS'locals'
p282
(dp283
S'self'
p284
S'<pydal.contrib.portalocker.LockedFile object>'
p285
sS'mode'
p286
S"'ab'"
p287
sg36
S"r'C:\\Users\\charl\\OneDrive\\Documents\\GitHub\\Commodity\\applications\\Commodity\\databases\\sql.log'"
p288
sssS'traceback'
p289
S'Traceback (most recent call last):\n  File "C:\\Users\\charl\\OneDrive\\Documents\\GitHub\\Commodity\\gluon\\restricted.py", line 227, in restricted\n    exec ccode in environment\n  File "C:\\Users\\charl\\OneDrive\\Documents\\GitHub\\Commodity\\applications\\Commodity\\models\\db1.py", line 10, in <module>\n    Field(\'time_stamp\',\'datetime\',writable=False,default=request.now)\n  File "C:\\Users\\charl\\OneDrive\\Documents\\GitHub\\Commodity\\gluon\\packages\\dal\\pydal\\base.py", line 834, in define_table\n    table = self.lazy_define_table(tablename,*fields,**args)\n  File "C:\\Users\\charl\\OneDrive\\Documents\\GitHub\\Commodity\\gluon\\packages\\dal\\pydal\\base.py", line 873, in lazy_define_table\n    polymodel=polymodel)\n  File "C:\\Users\\charl\\OneDrive\\Documents\\GitHub\\Commodity\\gluon\\packages\\dal\\pydal\\adapters\\base.py", line 510, in create_table\n    fake_migrate=fake_migrate\n  File "C:\\Users\\charl\\OneDrive\\Documents\\GitHub\\Commodity\\gluon\\packages\\dal\\pydal\\adapters\\base.py", line 640, in migrate_table\n    self.log(\'success!\\n\', table)\n  File "C:\\Users\\charl\\OneDrive\\Documents\\GitHub\\Commodity\\gluon\\packages\\dal\\pydal\\adapters\\base.py", line 212, in log\n    logfile = self.file_open(table._loggername, \'ab\')\n  File "C:\\Users\\charl\\OneDrive\\Documents\\GitHub\\Commodity\\gluon\\packages\\dal\\pydal\\adapters\\base.py", line 155, in file_open\n    fileobj = portalocker.LockedFile(filename,mode)\n  File "C:\\Users\\charl\\OneDrive\\Documents\\GitHub\\Commodity\\gluon\\packages\\dal\\pydal\\contrib\\portalocker.py", line 118, in __init__\n    self.file = open(filename, mode.replace(\'w\', \'a\'))\nIOError: [Errno 13] Permission denied: \'C:\\\\Users\\\\charl\\\\OneDrive\\\\Documents\\\\GitHub\\\\Commodity\\\\applications\\\\Commodity\\\\databases\\\\sql.log\'\n'
p290
s.