(dp1
S'review_name'
p2
(dp3
S'length'
p4
I512
sS'unique'
p5
I00
sS'sortable'
p6
<<<<<<< HEAD
I4
=======
I7
>>>>>>> origin/Commodity-2.0
sS'sql'
p7
S'CHAR(512)'
p8
sS'notnull'
p9
I00
sS'type'
p10
S'string'
p11
ssS'reviewer_id'
p12
(dp13
S'sortable'
p14
I4
sS'sql'
p15
S'CHAR(512)'
p16
sS'length'
p17
I512
sS'notnull'
p18
I00
sS'unique'
p19
I00
sS'type'
p20
S'string'
p21
ssS'review_content'
p22
(dp23
g4
I32768
sg5
I00
sg6
I5
sg7
S'TEXT'
p24
sg9
I00
sg10
S'text'
p25
ssS'review_rating'
p26
(dp27
g4
I512
sg5
I00
sg6
<<<<<<< HEAD
I6
=======
I5
>>>>>>> origin/Commodity-2.0
sg7
S'INTEGER'
p28
sg9
I00
sg10
S'integer'
p29
ssS'products_id'
p30
(dp31
g4
I512
sg5
I00
sg6
I2
sg7
S'CHAR(512)'
p32
sg9
I00
sg10
g11
ssS'reviewer_name'
p33
(dp34
g4
I512
sg5
I00
sg6
I3
sg7
S'CHAR(512)'
p35
sg9
I00
sg10
g11
ssS'time_stamp'
p36
(dp37
g4
I512
sg5
I00
sg6
I8
sg7
S'TIMESTAMP'
p38
sg9
I00
sg10
S'datetime'
<<<<<<< HEAD
p39
=======
p25
ssS'review_content'
p26
(dp27
g4
I32768
sg5
I00
sg6
I6
sg7
S'TEXT'
p28
sg9
I00
sg10
S'text'
p29
>>>>>>> origin/Commodity-2.0
ssS'id'
p40
(dp41
g4
I512
sg5
I00
sg6
I1
sg7
S'INTEGER PRIMARY KEY AUTOINCREMENT'
p42
sg9
I00
sg10
S'id'
<<<<<<< HEAD
p43
=======
p33
ssS'reviewer_id'
p34
(dp35
g4
I512
sg5
I00
sg6
I4
sg7
S'CHAR(512)'
p36
sg9
I00
sg10
g15
>>>>>>> origin/Commodity-2.0
ss.