(dp1
<<<<<<< HEAD
S'id'
=======
S'retailer_id'
>>>>>>> origin/master
p2
(dp3
S'length'
p4
<<<<<<< HEAD
I512
sS'unique'
p5
I00
sS'sortable'
=======
L3L
sS'sql'
p5
S'INTEGER REFERENCES retailers (id) ON DELETE CASCADE  '
>>>>>>> origin/master
p6
I1
sS'sql'
p7
S'INTEGER PRIMARY KEY AUTOINCREMENT'
p8
sS'notnull'
p9
I00
sS'type'
p10
<<<<<<< HEAD
S'id'
=======
S'reference retailers'
>>>>>>> origin/master
p11
ssS'product_id'
p12
(dp13
S'sortable'
p14
L2L
sS'sql'
p15
S'INTEGER REFERENCES products (id) ON DELETE CASCADE  '
p16
sS'length'
p17
L512L
sS'notnull'
p18
L0L
sS'unique'
p19
L0L
sS'type'
p20
S'reference products'
p21
ssS'product_id'
p22
(dp23
<<<<<<< HEAD
g14
L3L
sg15
S'INTEGER REFERENCES retailers (id) ON DELETE CASCADE  '
=======
g4
L2L
sg5
S'INTEGER REFERENCES products (id) ON DELETE CASCADE  '
>>>>>>> origin/master
p24
sg17
L512L
sg18
L0L
sg19
L0L
<<<<<<< HEAD
sg20
S'reference retailers'
=======
sg10
S'reference products'
>>>>>>> origin/master
p25
ss.